 cgamex86

 Timestamp is 69d22ad7 (Sun Apr  5 10:26:47 2026)

 Preferred load address is 10000000

 Start         Length     Name                   Class
 0001:00000000 000968d7H .text$mn                CODE
 0002:00000000 00000100H .idata$5                DATA
 0002:00000100 00000004H .00cfg                  DATA
 0002:00000104 00000004H .CRT$XCA                DATA
 0002:00000108 00000004H .CRT$XCZ                DATA
 0002:0000010c 00000004H .CRT$XIA                DATA
 0002:00000110 00000004H .CRT$XIZ                DATA
 0002:00000114 00000004H .CRT$XPA                DATA
 0002:00000118 00000004H .CRT$XPZ                DATA
 0002:0000011c 00000004H .CRT$XTA                DATA
 0002:00000120 00000010H .CRT$XTZ                DATA
 0002:00000124 00000000H .gfids$y                DATA
 0002:00000130 00001ce0H .rdata                  DATA
 0002:00001e10 00000004H .rdata$sxdata           DATA
 0002:00001e14 000002acH .rdata$zzzdbg           DATA
 0002:000020c0 00000004H .rtc$IAA                DATA
 0002:000020c4 00000004H .rtc$IZZ                DATA
 0002:000020c8 00000004H .rtc$TAA                DATA
 0002:000020cc 00000004H .rtc$TZZ                DATA
 0002:000020d0 00000080H .xdata$x                DATA
 0002:00002150 0000005cH .edata                  DATA
 0002:000021ac 0000003cH .idata$2                DATA
 0002:000021e8 00000014H .idata$3                DATA
 0002:000021fc 00000100H .idata$4                DATA
 0002:000022fc 000003deH .idata$6                DATA
 0003:00000000 00015f20H .data                   DATA
 0003:00015f20 004642dcH .bss                    DATA
 0004:00000000 00000060H .rsrc$01                DATA
 0004:00000060 00000180H .rsrc$02                DATA

  Address         Publics by Value              Rva+Base       Lib:Object

 0000:00000000       ___guard_fids_count        00000000     <absolute>
 0000:00000000       ___guard_iat_table         00000000     <absolute>
 0000:00000000       ___dynamic_value_reloc_table 00000000     <absolute>
 0000:00000000       ___hybrid_auxiliary_iat    00000000     <absolute>
 0000:00000000       ___guard_iat_count         00000000     <absolute>
 0000:00000000       ___hybrid_code_map_count   00000000     <absolute>
 0000:00000000       ___guard_longjmp_count     00000000     <absolute>
 0000:00000000       ___guard_longjmp_table     00000000     <absolute>
 0000:00000000       ___enclave_config          00000000     <absolute>
 0000:00000000       ___guard_fids_table        00000000     <absolute>
 0000:00000000       ___hybrid_code_map         00000000     <absolute>
 0000:00000000       ___volatile_metadata       00000000     <absolute>
 0000:00000001       ___safe_se_handler_count   00000001     <absolute>
 0000:00000100       ___guard_flags             00000100     <absolute>
 0000:00000000       ___ImageBase               10000000     <linker-defined>
 0001:00000000       _BG_GetWeaponStats         10001000 f   bg_misc.obj
 0001:00000060       _BG_GetWeaponMaxAmmo       10001060 f   bg_misc.obj
 0001:00000080       _BG_GetHandicapScalar      10001080 f   bg_misc.obj
 0001:00000100       _BG_GetWeaponAmmoPackSize  10001100 f   bg_misc.obj
 0001:00000130       _BG_GetWeaponAmmoPackMaxStack 10001130 f   bg_misc.obj
 0001:00000160       _BG_ItemTagForWeapon       10001160 f   bg_misc.obj
 0001:00000190       _BG_WeaponForItemTag       10001190 f   bg_misc.obj
 0001:000001c0       _BG_ItemTagForHoldable     100011c0 f   bg_misc.obj
 0001:000001e0       _BG_HoldableForItemTag     100011e0 f   bg_misc.obj
 0001:00000200       _BG_PlayerHasPersistantPowerup 10001200 f   bg_misc.obj
 0001:00000290       _BG_GetArmorUpperBound     10001290 f   bg_misc.obj
 0001:000002c0       _BG_GetHealthUpperBound    100012c0 f   bg_misc.obj
 0001:00000310       _BG_UpdateArmorTierFromCurrentArmor 10001310 f   bg_misc.obj
 0001:000003b0       _BG_ClearArmorTierIfEmpty  100013b0 f   bg_misc.obj
 0001:000003f0       _BG_GetArmorRegenTarget    100013f0 f   bg_misc.obj
 0001:00000450       _BG_ApplyArmorPickup       10001450 f   bg_misc.obj
 0001:000006c0       _BG_FindItem               100016c0 f   bg_misc.obj
 0001:00000710       _BG_FindItemByClassname    10001710 f   bg_misc.obj
 0001:00000770       _BG_FindItemByTypeAndTag   10001770 f   bg_misc.obj
 0001:000007d0       _BG_FindItemForWeapon      100017d0 f   bg_misc.obj
 0001:00000800       _BG_FindItemForPowerup     10001800 f   bg_misc.obj
 0001:00000910       _BG_FindItemForHoldable    10001910 f   bg_misc.obj
 0001:00000940       _BG_PlayerCarryingFlag     10001940 f   bg_misc.obj
 0001:000009a0       _BG_WeaponName             100019a0 f   bg_misc.obj
 0001:00000a00       _BG_CanItemBeGrabbed       10001a00 f   bg_misc.obj
 0001:00001100       _BG_EvaluateTrajectory     10002100 f   bg_misc.obj
 0001:000015a0       _BG_EvaluateTrajectoryDelta 100025a0 f   bg_misc.obj
 0001:000018c0       _BG_AddPredictableEventToPlayerstate 100028c0 f   bg_misc.obj
 0001:000019a0       _BG_TouchJumpPad           100029a0 f   bg_misc.obj
 0001:00001a70       _BG_PlayerStateToEntityState 10002a70 f   bg_misc.obj
 0001:00001ef0       _BG_PlayerTouchesItem      10002ef0 f   bg_misc.obj
 0001:00002490       _PM_UpdateViewAngles       10003490 f   bg_pmove.obj
 0001:000025a0       _Pmove                     100035a0 f   bg_pmove.obj
 0001:00002700       _PM_GetDefaultSettings     10003700 f   bg_pmove.obj
 0001:00002710       _PM_ClipVelocity           10003710 f   bg_pmove.obj
 0001:00002800       _PM_AddTouchEnt            10003800 f   bg_pmove.obj
 0001:00002880       _PM_AddEvent               10003880 f   bg_pmove.obj
 0001:000028a0       _PM_ApplyStepJump          100038a0 f   bg_pmove.obj
 0001:000029c0       _PM_GetActiveSettings      100039c0 f   bg_pmove.obj
 0001:000088f0       _PmoveSingle               100098f0 f   bg_pmove.obj
 0001:00009100       _PM_SlideMove              1000a100 f   bg_slidemove.obj
 0001:0000a060       _PM_StepSlideMove          1000b060 f   bg_slidemove.obj
 0001:0000b180       _Q_fabs                    1000c180 f   q_math.obj
 0001:0000b1a0       _Q_rsqrt                   1000c1a0 f   q_math.obj
 0001:0000b220       _ClampChar                 1000c220 f   q_math.obj
 0001:0000b240       _ClampShort                1000c240 f   q_math.obj
 0001:0000b270       _DirToByte                 1000c270 f   q_math.obj
 0001:0000b360       _ByteToDir                 1000c360 f   q_math.obj
 0001:0000b430       __DotProduct               1000c430 f   q_math.obj
 0001:0000b4b0       __VectorSubtract           1000c4b0 f   q_math.obj
 0001:0000b550       __VectorAdd                1000c550 f   q_math.obj
 0001:0000b5f0       __VectorCopy               1000c5f0 f   q_math.obj
 0001:0000b650       __VectorScale              1000c650 f   q_math.obj
 0001:0000b6d0       __VectorMA                 1000c6d0 f   q_math.obj
 0001:0000b780       _ColorBytes3               1000c780 f   q_math.obj
 0001:0000b7f0       _ColorBytes4               1000c7f0 f   q_math.obj
 0001:0000b870       _NormalizeColor            1000c870 f   q_math.obj
 0001:0000b9a0       _RadiusFromBounds          1000c9a0 f   q_math.obj
 0001:0000ba50       _ClearBounds               1000ca50 f   q_math.obj
 0001:0000baf0       _AddPointToBounds          1000caf0 f   q_math.obj
 0001:0000bdf0       _VectorNormalize           1000cdf0 f   q_math.obj
 0001:0000bf20       _VectorNormalize2          1000cf20 f   q_math.obj
 0001:0000c090       _Vector4Scale              1000d090 f   q_math.obj
 0001:0000c130       _VectorRotate              1000d130 f   q_math.obj
 0001:0000c2e0       _Q_log2                    1000d2e0 f   q_math.obj
 0001:0000c310       _Q_rand                    1000d310 f   q_math.obj
 0001:0000c330       _Q_random                  1000d330 f   q_math.obj
 0001:0000c360       _Q_crandom                 1000d360 f   q_math.obj
 0001:0000c3a0       _Q_irand                   1000d3a0 f   q_math.obj
 0001:0000c3f0       _vectoangles               1000d3f0 f   q_math.obj
 0001:0000c650       _AnglesToAxis              1000d650 f   q_math.obj
 0001:0000c740       _AxisClear                 1000d740 f   q_math.obj
 0001:0000c850       _AxisCopy                  1000d850 f   q_math.obj
 0001:0000c9e0       _SetPlaneSignbits          1000d9e0 f   q_math.obj
 0001:0000ca40       _BoxOnPlaneSide            1000da40 f   q_math.obj
 0001:0000cc80       _AngleMod                  1000dc80 f   q_math.obj
 0001:0000ccc0       _LerpAngle                 1000dcc0 f   q_math.obj
 0001:0000cd40       _AngleSubtract             1000dd40 f   q_math.obj
 0001:0000cda0       _AnglesSubtract            1000dda0 f   q_math.obj
 0001:0000ce70       _AngleNormalize360         1000de70 f   q_math.obj
 0001:0000ceb0       _AngleNormalize180         1000deb0 f   q_math.obj
 0001:0000cf00       _AngleDelta                1000df00 f   q_math.obj
 0001:0000cf20       _PlaneFromPoints           1000df20 f   q_math.obj
 0001:0000d120       _ProjectPointOnPlane       1000e120 f   q_math.obj
 0001:0000d380       _RotatePointAroundVector   1000e380 f   q_math.obj
 0001:0000d8e0       _RotateAroundDirection     1000e8e0 f   q_math.obj
 0001:0000da00       _MakeNormalVectors         1000ea00 f   q_math.obj
 0001:0000dbc0       _MatrixMultiply            1000ebc0 f   q_math.obj
 0001:0000e1d0       _AngleVectors              1000f1d0 f   q_math.obj
 0001:0000e4d0       _PerpendicularVector       1000f4d0 f   q_math.obj
 0001:0000e5d0       _ShortSwap                 1000f5d0 f   q_shared.obj
 0001:0000e610       _LongSwap                  1000f610 f   q_shared.obj
 0001:0000e670       _FloatSwap                 1000f670 f   q_shared.obj
 0001:0000e6a0       _Com_Clamp                 1000f6a0 f   q_shared.obj
 0001:0000e6d0       _COM_SkipPath              1000f6d0 f   q_shared.obj
 0001:0000e710       _COM_StripExtension        1000f710 f   q_shared.obj
 0001:0000e750       _COM_DefaultExtension      1000f750 f   q_shared.obj
 0001:0000e7e0       _COM_BeginParseSession     1000f7e0 f   q_shared.obj
 0001:0000e810       _COM_GetCurrentParseLine   1000f810 f   q_shared.obj
 0001:0000e820       _COM_Parse                 1000f820 f   q_shared.obj
 0001:0000e840       _COM_ParseExt              1000f840 f   q_shared.obj
 0001:0000eae0       _COM_Compress              1000fae0 f   q_shared.obj
 0001:0000ed00       _COM_ParseError            1000fd00 f   q_shared.obj
 0001:0000ed50       _COM_ParseWarning          1000fd50 f   q_shared.obj
 0001:0000eda0       _COM_MatchToken            1000fda0 f   q_shared.obj
 0001:0000edf0       _SkipBracedSection         1000fdf0 f   q_shared.obj
 0001:0000ee70       _SkipRestOfLine            1000fe70 f   q_shared.obj
 0001:0000eec0       _Parse1DMatrix             1000fec0 f   q_shared.obj
 0001:0000ef30       _Parse2DMatrix             1000ff30 f   q_shared.obj
 0001:0000efa0       _Parse3DMatrix             1000ffa0 f   q_shared.obj
 0001:0000f010       _Com_sprintf               10010010 f   q_shared.obj
 0001:0000f0d0       _Q_isprint                 100100d0 f   q_shared.obj
 0001:0000f0f0       _Q_islower                 100100f0 f   q_shared.obj
 0001:0000f110       _Q_isupper                 10010110 f   q_shared.obj
 0001:0000f130       _Q_isalpha                 10010130 f   q_shared.obj
 0001:0000f160       _Q_stricmp                 10010160 f   q_shared.obj
 0001:0000f1a0       _Q_strncmp                 100101a0 f   q_shared.obj
 0001:0000f220       _Q_stricmpn                10010220 f   q_shared.obj
 0001:0000f300       _Q_strnicmp                10010300 f   q_shared.obj
 0001:0000f320       _Q_strlwr                  10010320 f   q_shared.obj
 0001:0000f360       _Q_strupr                  10010360 f   q_shared.obj
 0001:0000f3a0       _Q_strrchr                 100103a0 f   q_shared.obj
 0001:0000f400       _Q_strncpyz                10010400 f   q_shared.obj
 0001:0000f470       _Q_strcat                  10010470 f   q_shared.obj
 0001:0000f4c0       _Q_strlen                  100104c0 f   q_shared.obj
 0001:0000f4f0       _Q_PrintStrlen             100104f0 f   q_shared.obj
 0001:0000f570       _Q_CleanStr                10010570 f   q_shared.obj
 0001:0000f600       _va                        10010600 f   q_shared.obj
 0001:0000f660       _Info_ValueForKey          10010660 f   q_shared.obj
 0001:0000f7f0       _Info_RemoveKey            100107f0 f   q_shared.obj
 0001:0000f970       _Info_SetValueForKey       10010970 f   q_shared.obj
 0001:0000fb00       _Info_SetValueForKey_Big   10010b00 f   q_shared.obj
 0001:0000fc80       _Info_Validate             10010c80 f   q_shared.obj
 0001:0000fcc0       _Info_NextPair             10010cc0 f   q_shared.obj
 0001:0000fdb0       _ShortNoSwap               10010db0 f   q_shared.obj
 0001:0000fdc0       _LongNoSwap                10010dc0 f   q_shared.obj
 0001:0000fdd0       _Long64Swap                10010dd0 f   q_shared.obj
 0001:0000fe10       _Long64NoSwap              10010e10 f   q_shared.obj
 0001:0000fe20       _FloatNoSwap               10010e20 f   q_shared.obj
 0001:0000fe80       _Info_RemoveKey_Big        10010e80 f   q_shared.obj
 0001:00010010       ___local_stdio_printf_options 10011010 f i q_shared.obj
 0001:00010020       __vsnprintf_l              10011020 f i q_shared.obj
 0001:00010080       _vsprintf                  10011080 f i q_shared.obj
 0001:000100c0       _String_Alloc              100110c0 f   ui_shared.obj
 0001:00010220       _String_Init               10011220 f   ui_shared.obj
 0001:000102b0       _String_Report             100112b0 f   ui_shared.obj
 0001:00010380       _Init_Display              10011380 f   ui_shared.obj
 0001:00010390       _Menu_Init                 10011390 f   ui_shared.obj
 0001:00010410       _Item_Init                 10011410 f   ui_shared.obj
 0001:00010470       _Menu_PostParse            10011470 f   ui_shared.obj
 0001:000104e0       _Menu_GetFocused           100114e0 f   ui_shared.obj
 0001:00010540       _Menu_HandleKey            10011540 f   ui_shared.obj
 0001:00010bc0       _Menu_HandleMouseMove      10011bc0 f   ui_shared.obj
 0001:00010e30       _Menu_ScrollFeeder         10011e30 f   ui_shared.obj
 0001:00010ec0       _Float_Parse               10011ec0 f   ui_shared.obj
 0001:00010f10       _Color_Parse               10011f10 f   ui_shared.obj
 0001:00010f70       _Int_Parse                 10011f70 f   ui_shared.obj
 0001:00010fc0       _Rect_Parse                10011fc0 f   ui_shared.obj
 0001:00011030       _String_Parse              10012030 f   ui_shared.obj
 0001:00011080       _PC_Float_Parse            10012080 f   ui_shared.obj
 0001:00011160       _PC_Color_Parse            10012160 f   ui_shared.obj
 0001:000111c0       _PC_Int_Parse              100121c0 f   ui_shared.obj
 0001:00011290       _PC_Rect_Parse             10012290 f   ui_shared.obj
 0001:00011300       _PC_String_Parse           10012300 f   ui_shared.obj
 0001:00011360       _PC_Script_Parse           10012360 f   ui_shared.obj
 0001:000114b0       _Menu_Count                100124b0 f   ui_shared.obj
 0001:000114c0       _Menu_New                  100124c0 f   ui_shared.obj
 0001:00011520       _Menu_PaintAll             10012520 f   ui_shared.obj
 0001:00011640       _Menus_ActivateByName      10012640 f   ui_shared.obj
 0001:00011710       _Menu_Reset                10012710 f   ui_shared.obj
 0001:00011720       _Menus_AnyVisible          10012720 f   ui_shared.obj
 0001:00011770       _Menus_AnyFullScreenVisible 10012770 f   ui_shared.obj
 0001:000117d0       _Menus_Activate            100127d0 f   ui_shared.obj
 0001:00011880       _Display_GetContext        10012880 f   ui_shared.obj
 0001:00011890       _Display_CaptureItem       10012890 f   ui_shared.obj
 0001:00011900       _Display_MouseMove         10012900 f   ui_shared.obj
 0001:000119b0       _Display_CursorType        100129b0 f   ui_shared.obj
 0001:00011a80       _Display_KeyBindPending    10012a80 f   ui_shared.obj
 0001:00011a90       _Menus_OpenByName          10012a90 f   ui_shared.obj
 0001:00011ab0       _Menus_FindByName          10012ab0 f   ui_shared.obj
 0001:00011b10       _Menus_ShowByName          10012b10 f   ui_shared.obj
 0001:00011b40       _Menus_CloseByName         10012b40 f   ui_shared.obj
 0001:00011b90       _Menu_ShowItemByName       10012b90 f   ui_shared.obj
 0001:00011c40       _Display_HandleKey         10012c40 f   ui_shared.obj
 0001:00011c90       _LerpColor                 10012c90 f   ui_shared.obj
 0001:00011d30       _Menus_CloseAll            10012d30 f   ui_shared.obj
 0001:00011da0       _Menu_Paint                10012da0 f   ui_shared.obj
 0001:00012060       _Menu_SetFeederSelection   10013060 f   ui_shared.obj
 0001:00012170       _Display_CacheAll          10013170 f   ui_shared.obj
 0001:000121b0       _UI_Alloc                  100131b0 f   ui_shared.obj
 0001:00012230       _UI_InitMemory             10013230 f   ui_shared.obj
 0001:00012250       _UI_OutOfMemory            10013250 f   ui_shared.obj
 0001:00012260       _Controls_GetConfig        10013260 f   ui_shared.obj
 0001:000122d0       _Controls_SetConfig        100132d0 f   ui_shared.obj
 0001:00012380       _Controls_SetDefaults      10013380 f   ui_shared.obj
 0001:000123d0       _UI_NormalizeFontPath      100133d0 f   ui_shared.obj
 0001:00012480       _Item_RunScript            10013480 f   ui_shared.obj
 0001:00012610       _Item_SetupKeywordHash     10013610 f   ui_shared.obj
 0001:00012670       _Menu_SetupKeywordHash     10013670 f   ui_shared.obj
 0001:000126d0       _BindingIDFromName         100136d0 f   ui_shared.obj
 0001:00012720       _Item_Bind_HandleKey       10013720 f   ui_shared.obj
 0001:00012a40       _Item_Slider_Paint         10013a40 f   ui_shared.obj
 0001:00012d10       _Menu_SetPrevCursorItem    10013d10 f   ui_shared.obj
 0001:00012e70       _Menu_SetNextCursorItem    10013e70 f   ui_shared.obj
 0001:000133d0       _PC_SourceWarning          100143d0 f   ui_shared.obj
 0001:00013490       _PC_SourceError            10014490 f   ui_shared.obj
 0001:00013550       _GradientBar_Paint         10014550 f   ui_shared.obj
 0001:000135d0       _Window_Init               100145d0 f   ui_shared.obj
 0001:00013670       _Fade                      10014670 f   ui_shared.obj
 0001:00013730       _Window_Paint              10014730 f   ui_shared.obj
 0001:00014040       _Item_SetScreenCoords      10015040 f   ui_shared.obj
 0001:00014160       _Item_UpdatePosition       10015160 f   ui_shared.obj
 0001:00014200       _Menu_UpdatePosition       10015200 f   ui_shared.obj
 0001:00014330       _Menu_ClearFocus           10015330 f   ui_shared.obj
 0001:00014410       _IsVisible                 10015410 f   ui_shared.obj
 0001:00014440       _Rect_ContainsPoint        10015440 f   ui_shared.obj
 0001:000144a0       _Menu_ItemsMatchingGroup   100154a0 f   ui_shared.obj
 0001:00014540       _Menu_GetMatchingItemByNumber 10015540 f   ui_shared.obj
 0001:000145f0       _Script_SetColor           100155f0 f   ui_shared.obj
 0001:000146f0       _Script_SetAsset           100156f0 f   ui_shared.obj
 0001:00014710       _Script_SetBackground      10015710 f   ui_shared.obj
 0001:00014750       _Menu_FindItemByName       10015750 f   ui_shared.obj
 0001:00014d70       _Script_SetTeamColor       10015d70 f   ui_shared.obj
 0001:00014de0       _Script_SetItemColor       10015de0 f   ui_shared.obj
 0001:00014f60       _Menu_FadeItemByName       10015f60 f   ui_shared.obj
 0001:00015060       _Script_Show               10016060 f   ui_shared.obj
 0001:000150a0       _Script_Hide               100160a0 f   ui_shared.obj
 0001:000150e0       _Script_FadeIn             100160e0 f   ui_shared.obj
 0001:00015120       _Script_FadeOut            10016120 f   ui_shared.obj
 0001:00015160       _Script_Open               10016160 f   ui_shared.obj
 0001:00015190       _Script_ConditionalOpen    10016190 f   ui_shared.obj
 0001:00015220       _Script_Close              10016220 f   ui_shared.obj
 0001:000152b0       _Menu_TransitionItemByName 100162b0 f   ui_shared.obj
 0001:00015410       _Script_Transition         10016410 f   ui_shared.obj
 0001:00015500       _Menu_OrbitItemByName      10016500 f   ui_shared.obj
 0001:000155c0       _Script_Orbit              100165c0 f   ui_shared.obj
 0001:000156a0       _Script_SetFocus           100166a0 f   ui_shared.obj
 0001:00015770       _Script_SetPlayerModel     10016770 f   ui_shared.obj
 0001:000157b0       _Script_SetPlayerHead      100167b0 f   ui_shared.obj
 0001:000157f0       _Script_SetCvar            100167f0 f   ui_shared.obj
 0001:00015840       _Script_Exec               10016840 f   ui_shared.obj
 0001:00015880       _Script_Play               10016880 f   ui_shared.obj
 0001:00015940       _Script_playLooped         10016940 f   ui_shared.obj
 0001:00015ce0       _Item_EnableShowViaCvar    10016ce0 f   ui_shared.obj
 0001:00015d30       _Item_SetFocus             10016d30 f   ui_shared.obj
 0001:00015f90       _Item_ListBox_MaxScroll    10016f90 f   ui_shared.obj
 0001:00016040       _Item_ListBox_ThumbPosition 10017040 f   ui_shared.obj
 0001:000161b0       _Item_ListBox_ThumbDrawPosition 100171b0 f   ui_shared.obj
 0001:00016360       _Item_Slider_ThumbPosition 10017360 f   ui_shared.obj
 0001:00016480       _Item_Slider_OverSlider    10017480 f   ui_shared.obj
 0001:00016530       _Item_ListBox_OverLB       10017530 f   ui_shared.obj
 0001:00016940       _Item_ListBox_MouseEnter   10017940 f   ui_shared.obj
 0001:00016b50       _Item_MouseEnter           10017b50 f   ui_shared.obj
 0001:00016d20       _Item_MouseLeave           10017d20 f   ui_shared.obj
 0001:00016d90       _Menu_HitTest              10017d90 f   ui_shared.obj
 0001:00016e00       _Item_SetMouseOver         10017e00 f   ui_shared.obj
 0001:00016e40       _Item_OwnerDraw_HandleKey  10017e40 f   ui_shared.obj
 0001:00016e90       _Item_ListBox_HandleKey    10017e90 f   ui_shared.obj
 0001:000176c0       _Item_YesNo_HandleKey      100186c0 f   ui_shared.obj
 0001:000177c0       _Item_Multi_CountSettings  100187c0 f   ui_shared.obj
 0001:000177f0       _Item_Multi_FindCvarByValue 100187f0 f   ui_shared.obj
 0001:00017930       _Item_Multi_Setting        10018930 f   ui_shared.obj
 0001:00017a90       _Item_PresetList_Setting   10018a90 f   ui_shared.obj
 0001:00017b80       _Item_PresetList_FindCvarByValue 10018b80 f   ui_shared.obj
 0001:00017c70       _Item_Multi_HandleKey      10018c70 f   ui_shared.obj
 0001:00017e10       _Item_PresetList_HandleKey 10018e10 f   ui_shared.obj
 0001:00018030       _Item_TextField_HandleKey  10019030 f   ui_shared.obj
 0001:00018bb0       _Item_StartCapture         10019bb0 f   ui_shared.obj
 0001:00018de0       _Item_StopCapture          10019de0 f   ui_shared.obj
 0001:00018df0       _Item_Slider_HandleKey     10019df0 f   ui_shared.obj
 0001:00019000       _Item_HandleKey            1001a000 f   ui_shared.obj
 0001:000191d0       _Item_Action               1001a1d0 f   ui_shared.obj
 0001:00019310       _Display_VisibleMenuCount  1001a310 f   ui_shared.obj
 0001:00019360       _Menus_HandleOOBClick      1001a360 f   ui_shared.obj
 0001:00019550       _ToWindowCoords            1001a550 f   ui_shared.obj
 0001:000195c0       _Rect_ToWindowCoords       1001a5c0 f   ui_shared.obj
 0001:00019890       _Item_SetTextExtents       1001a890 f   ui_shared.obj
 0001:00019b20       _Item_TextColor            1001ab20 f   ui_shared.obj
 0001:00019e60       _Item_Text_AutoWrapped_Paint 1001ae60 f   ui_shared.obj
 0001:0001a230       _Item_Text_Wrapped_Paint   1001b230 f   ui_shared.obj
 0001:0001a460       _Item_Text_Paint           1001b460 f   ui_shared.obj
 0001:0001a580       _Item_TextField_Paint      1001b580 f   ui_shared.obj
 0001:0001a930       _Item_YesNo_Paint          1001b930 f   ui_shared.obj
 0001:0001abd0       _Item_Multi_Paint          1001bbd0 f   ui_shared.obj
 0001:0001ae00       _Item_PresetList_Paint     1001be00 f   ui_shared.obj
 0001:0001b030       _Item_SliderColor_Paint    1001c030 f   ui_shared.obj
 0001:0001b4b0       _BindingFromName           1001c4b0 f   ui_shared.obj
 0001:0001b5c0       _Item_Bind_Paint           1001c5c0 f   ui_shared.obj
 0001:0001b8c0       _AdjustFrom640             1001c8c0 f   ui_shared.obj
 0001:0001b990       _Item_Model_Paint          1001c990 f   ui_shared.obj
 0001:0001be50       _Item_Image_Paint          1001ce50 f   ui_shared.obj
 0001:0001bed0       _Item_ListBox_Paint        1001ced0 f   ui_shared.obj
 0001:0001ca50       _Item_OwnerDraw_Paint      1001da50 f   ui_shared.obj
 0001:0001d0f0       _Item_Paint                1001e0f0 f   ui_shared.obj
 0001:0001d910       _Menu_GetFocusedItem       1001e910 f   ui_shared.obj
 0001:0001d970       _Item_ValidateTypeData     1001e970 f   ui_shared.obj
 0001:0001dad0       _KeywordHash_Key           1001ead0 f   ui_shared.obj
 0001:0001db70       _KeywordHash_Add           1001eb70 f   ui_shared.obj
 0001:0001dbb0       _KeywordHash_Find          1001ebb0 f   ui_shared.obj
 0001:0001dc10       _ItemParse_name            1001ec10 f   ui_shared.obj
 0001:0001dc40       _ItemParse_focusSound      1001ec40 f   ui_shared.obj
 0001:0001dc90       _ItemParse_text            1001ec90 f   ui_shared.obj
 0001:0001dcc0       _ItemParse_group           1001ecc0 f   ui_shared.obj
 0001:0001dcf0       _ItemParse_asset_model     1001ecf0 f   ui_shared.obj
 0001:0001dd60       _ItemParse_asset_shader    1001ed60 f   ui_shared.obj
 0001:0001dda0       _ItemParse_model_origin    1001eda0 f   ui_shared.obj
 0001:0001de30       _ItemParse_model_fovx      1001ee30 f   ui_shared.obj
 0001:0001de70       _ItemParse_model_fovy      1001ee70 f   ui_shared.obj
 0001:0001deb0       _ItemParse_model_rotation  1001eeb0 f   ui_shared.obj
 0001:0001def0       _ItemParse_model_angle     1001eef0 f   ui_shared.obj
 0001:0001df30       _ItemParse_rect            1001ef30 f   ui_shared.obj
 0001:0001df60       _ItemParse_widescreen      1001ef60 f   ui_shared.obj
 0001:0001dfb0       _ItemParse_style           1001efb0 f   ui_shared.obj
 0001:0001dfe0       _ItemParse_decoration      1001efe0 f   ui_shared.obj
 0001:0001e000       _ItemParse_notselectable   1001f000 f   ui_shared.obj
 0001:0001e050       _ItemParse_wrapped         1001f050 f   ui_shared.obj
 0001:0001e070       _ItemParse_autowrapped     1001f070 f   ui_shared.obj
 0001:0001e090       _ItemParse_horizontalscroll 1001f090 f   ui_shared.obj
 0001:0001e0b0       _ItemParse_type            1001f0b0 f   ui_shared.obj
 0001:0001e0f0       _ItemParse_elementwidth    1001f0f0 f   ui_shared.obj
 0001:0001e130       _ItemParse_elementheight   1001f130 f   ui_shared.obj
 0001:0001e170       _ItemParse_feeder          1001f170 f   ui_shared.obj
 0001:0001e1a0       _ItemParse_elementtype     1001f1a0 f   ui_shared.obj
 0001:0001e1f0       _ItemParse_columns         1001f1f0 f   ui_shared.obj
 0001:0001e2f0       _ItemParse_border          1001f2f0 f   ui_shared.obj
 0001:0001e320       _ItemParse_bordersize      1001f320 f   ui_shared.obj
 0001:0001e350       _ItemParse_visible         1001f350 f   ui_shared.obj
 0001:0001e390       _ItemParse_ownerdraw       1001f390 f   ui_shared.obj
 0001:0001e3d0       _ItemParse_align           1001f3d0 f   ui_shared.obj
 0001:0001e400       _ItemParse_textalign       1001f400 f   ui_shared.obj
 0001:0001e430       _ItemParse_textalignx      1001f430 f   ui_shared.obj
 0001:0001e460       _ItemParse_textaligny      1001f460 f   ui_shared.obj
 0001:0001e490       _ItemParse_font            1001f490 f   ui_shared.obj
 0001:0001e4c0       _ItemParse_textscale       1001f4c0 f   ui_shared.obj
 0001:0001e4f0       _ItemParse_textstyle       1001f4f0 f   ui_shared.obj
 0001:0001e520       _ItemParse_backcolor       1001f520 f   ui_shared.obj
 0001:0001e580       _ItemParse_forecolor       1001f580 f   ui_shared.obj
 0001:0001e5f0       _ItemParse_bordercolor     1001f5f0 f   ui_shared.obj
 0001:0001e650       _ItemParse_outlinecolor    1001f650 f   ui_shared.obj
 0001:0001e680       _ItemParse_background      1001f680 f   ui_shared.obj
 0001:0001e6c0       _ItemParse_cinematic       1001f6c0 f   ui_shared.obj
 0001:0001e6f0       _ItemParse_doubleClick     1001f6f0 f   ui_shared.obj
 0001:0001e750       _ItemParse_cellId          1001f750 f   ui_shared.obj
 0001:0001e780       _ItemParse_defaultContent  1001f780 f   ui_shared.obj
 0001:0001e7b0       _ItemParse_onFocus         1001f7b0 f   ui_shared.obj
 0001:0001e7e0       _ItemParse_leaveFocus      1001f7e0 f   ui_shared.obj
 0001:0001e810       _ItemParse_mouseEnter      1001f810 f   ui_shared.obj
 0001:0001e840       _ItemParse_mouseExit       1001f840 f   ui_shared.obj
 0001:0001e870       _ItemParse_mouseEnterText  1001f870 f   ui_shared.obj
 0001:0001e8a0       _ItemParse_mouseExitText   1001f8a0 f   ui_shared.obj
 0001:0001e8d0       _ItemParse_action          1001f8d0 f   ui_shared.obj
 0001:0001e900       _ItemParse_precision       1001f900 f   ui_shared.obj
 0001:0001e930       _ItemParse_special         1001f930 f   ui_shared.obj
 0001:0001e9a0       _ItemParse_cvarTest        1001f9a0 f   ui_shared.obj
 0001:0001e9c0       _ItemParse_cvarTest2       1001f9c0 f   ui_shared.obj
 0001:0001e9e0       _ItemParse_cvarTest3       1001f9e0 f   ui_shared.obj
 0001:0001ea00       _ItemParse_cvarTest4       1001fa00 f   ui_shared.obj
 0001:0001ea20       _ItemParse_cvar            1001fa20 f   ui_shared.obj
 0001:0001eab0       _ItemParse_cvara           1001fab0 f   ui_shared.obj
 0001:0001eb10       _ItemParse_maxChars        1001fb10 f   ui_shared.obj
 0001:0001eb70       _ItemParse_maxPaintChars   1001fb70 f   ui_shared.obj
 0001:0001ebd0       _ItemParse_cvarFloat       1001fbd0 f   ui_shared.obj
 0001:0001ec80       _ItemParse_cvarInt         1001fc80 f   ui_shared.obj
 0001:0001ed50       _ItemParse_cvarPreset      1001fd50 f   ui_shared.obj
 0001:0001ef50       _ItemParse_cvarStrList     1001ff50 f   ui_shared.obj
 0001:0001f130       _ItemParse_cvarFloatList   10020130 f   ui_shared.obj
 0001:0001f2f0       _ItemParse_addColorRange   100202f0 f   ui_shared.obj
 0001:0001f3a0       _ItemParse_ownerdrawFlag   100203a0 f   ui_shared.obj
 0001:0001f430       _ItemParse_enableCvar      10020430 f   ui_shared.obj
 0001:0001f450       _ItemParse_disableCvar     10020450 f   ui_shared.obj
 0001:0001f470       _ItemParse_showCvar        10020470 f   ui_shared.obj
 0001:0001f490       _ItemParse_hideCvar        10020490 f   ui_shared.obj
 0001:0001f510       _ItemParse_showCvar2       10020510 f   ui_shared.obj
 0001:0001f530       _ItemParse_hideCvar2       10020530 f   ui_shared.obj
 0001:0001f550       _ItemParse_showCvar3       10020550 f   ui_shared.obj
 0001:0001f570       _ItemParse_hideCvar3       10020570 f   ui_shared.obj
 0001:0001f590       _ItemParse_showCvar4       10020590 f   ui_shared.obj
 0001:0001f5b0       _ItemParse_hideCvar4       100205b0 f   ui_shared.obj
 0001:0001f5d0       _Item_Parse                100205d0 f   ui_shared.obj
 0001:0001f700       _Item_InitControls         10020700 f   ui_shared.obj
 0001:0001f770       _MenuParse_font            10020770 f   ui_shared.obj
 0001:0001f860       _MenuParse_name            10020860 f   ui_shared.obj
 0001:0001f8b0       _MenuParse_fullscreen      100208b0 f   ui_shared.obj
 0001:0001f8f0       _MenuParse_widescreen      100208f0 f   ui_shared.obj
 0001:0001f940       _MenuParse_rect            10020940 f   ui_shared.obj
 0001:0001f970       _MenuParse_style           10020970 f   ui_shared.obj
 0001:0001f9a0       _MenuParse_visible         100209a0 f   ui_shared.obj
 0001:0001f9f0       _MenuParse_onOpen          100209f0 f   ui_shared.obj
 0001:0001fa30       _MenuParse_onClose         10020a30 f   ui_shared.obj
 0001:0001fa70       _MenuParse_onESC           10020a70 f   ui_shared.obj
 0001:0001fab0       _MenuParse_border          10020ab0 f   ui_shared.obj
 0001:0001fae0       _MenuParse_borderSize      10020ae0 f   ui_shared.obj
 0001:0001fb10       _MenuParse_backcolor       10020b10 f   ui_shared.obj
 0001:0001fb70       _MenuParse_forecolor       10020b70 f   ui_shared.obj
 0001:0001fbe0       _MenuParse_bordercolor     10020be0 f   ui_shared.obj
 0001:0001fc40       _MenuParse_focuscolor      10020c40 f   ui_shared.obj
 0001:0001fca0       _MenuParse_disablecolor    10020ca0 f   ui_shared.obj
 0001:0001fd00       _MenuParse_outlinecolor    10020d00 f   ui_shared.obj
 0001:0001fd40       _MenuParse_background      10020d40 f   ui_shared.obj
 0001:0001fd90       _MenuParse_backgroundSize  10020d90 f   ui_shared.obj
 0001:0001fdd0       _MenuParse_cinematic       10020dd0 f   ui_shared.obj
 0001:0001fe00       _MenuParse_ownerdrawFlag   10020e00 f   ui_shared.obj
 0001:0001fe40       _MenuParse_ownerdraw       10020e40 f   ui_shared.obj
 0001:0001fe70       _MenuParse_popup           10020e70 f   ui_shared.obj
 0001:0001fea0       _MenuParse_outOfBounds     10020ea0 f   ui_shared.obj
 0001:0001fed0       _MenuParse_soundLoop       10020ed0 f   ui_shared.obj
 0001:0001ff10       _MenuParse_fadeClamp       10020f10 f   ui_shared.obj
 0001:0001ff50       _MenuParse_fadeAmount      10020f50 f   ui_shared.obj
 0001:0001ff90       _MenuParse_fadeCycle       10020f90 f   ui_shared.obj
 0001:0001ffd0       _MenuParse_itemDef         10020fd0 f   ui_shared.obj
 0001:000200b0       _Menu_Parse                100210b0 f   ui_shared.obj
 0001:00020330       _CG_ScoresDown_f           10021330 f   cg_consolecmds.obj
 0001:00020390       _CG_ConsoleCommand         10021390 f   cg_consolecmds.obj
 0001:00020440       _CG_InitConsoleCommands    10021440 f   cg_consolecmds.obj
 0001:000206f0       _CG_TargetCommand_f        100216f0 f   cg_consolecmds.obj
 0001:00021ed0       _CG_ResetDraw2DMenuCache   10022ed0 f   cg_draw.obj
 0001:00021f30       _CG_CacheDraw2DMenuCache   10022f30 f   cg_draw.obj
 0001:00021fc0       _CG_ClearQueuedWorldMarkers 10022fc0 f   cg_draw.obj
 0001:00021fe0       _CG_AllocQueuedWorldMarker 10022fe0 f   cg_draw.obj
 0001:00022030       _CG_AllocQueuedWorldMarkerForKey 10023030 f   cg_draw.obj
 0001:000220d0       _CG_POIMarkerSizeForOrigin 100230d0 f   cg_draw.obj
 0001:000221e0       _CG_ShouldDrawPOIMarkerMode 100231e0 f   cg_draw.obj
 0001:00022290       _CG_UpdateQueuedWorldMarkers 10023290 f   cg_draw.obj
 0001:000223d0       _CG_DrawQueuedWorldMarkers 100233d0 f   cg_draw.obj
 0001:00022710       _CG_AddLagometerFrameInfo  10023710 f   cg_draw.obj
 0001:00022750       _CG_AddLagometerSnapshotInfo 10023750 f   cg_draw.obj
 0001:000227c0       _CG_CenterPrint            100237c0 f   cg_draw.obj
 0001:00022840       _CG_DrawHead               10023840 f   cg_draw.obj
 0001:00022b00       _CG_DrawActive             10023b00 f   cg_draw.obj
 0001:00022dd0       _CG_DrawFlagModel          10023dd0 f   cg_draw.obj
 0001:00023080       _CG_GetObituaryIcon        10024080 f   cg_draw.obj
 0001:00023290       _CG_ObituaryColorForIndex  10024290 f   cg_draw.obj
 0001:00023400       _CG_DrawTeamBackground     10024400 f   cg_draw.obj
 0001:00023510       _CG_Text_Paint             10024510 f   cg_draw.obj
 0001:00023880       _CG_Text_Width             10024880 f   cg_draw.obj
 0001:000239b0       _CG_Text_Height            100249b0 f   cg_draw.obj
 0001:00023af0       _CG_RecordSpectatorItemPickup 10024af0 f   cg_draw.obj
 0001:00023ce0       _CG_ClearSpectatorItemPickups 10024ce0 f   cg_draw.obj
 0001:00023d30       _CG_UpdateSpectatorItemPickups 10024d30 f   cg_draw.obj
 0001:00023ec0       _CG_Draw3DModel            10024ec0 f   cg_draw.obj
 0001:00024050       _CG_Text_PaintChar         10025050 f   cg_draw.obj
 0001:00024100       _CG_ShouldDrawSpriteSelf   10025100 f   cg_draw.obj
 0001:00024130       _CG_ShouldDrawTieredArmor  10025130 f   cg_draw.obj
 0001:00024160       _CG_ShouldDrawSpeedometer  10025160 f   cg_draw.obj
 0001:0002c770       _CG_DrawTimedMenus         1002d770 f   cg_draw.obj
 0001:0002d7b0       _CG_AdjustFrom640          1002e7b0 f   cg_drawtools.obj
 0001:0002d840       _CG_SetAdjustFrom640Mode   1002e840 f   cg_drawtools.obj
 0001:0002d850       _CG_FillRect               1002e850 f   cg_drawtools.obj
 0001:0002d8f0       _CG_DrawPic                1002e8f0 f   cg_drawtools.obj
 0001:0002d980       _CG_DrawStringExt          1002e980 f   cg_drawtools.obj
 0001:0002dbc0       _CG_DrawBigString          1002ebc0 f   cg_drawtools.obj
 0001:0002dc80       _CG_DrawBigStringColor     1002ec80 f   cg_drawtools.obj
 0001:0002dcd0       _CG_DrawSmallString        1002ecd0 f   cg_drawtools.obj
 0001:0002dd70       _CG_DrawSmallStringColor   1002ed70 f   cg_drawtools.obj
 0001:0002dda0       _CG_DrawStrlen             1002eda0 f   cg_drawtools.obj
 0001:0002de10       _CG_FadeColor              1002ee10 f   cg_drawtools.obj
 0001:0002def0       _CG_TeamColor              1002eef0 f   cg_drawtools.obj
 0001:0002df30       _CG_TileClear              1002ef30 f   cg_drawtools.obj
 0001:0002e030       _CG_ColorForHealth         1002f030 f   cg_drawtools.obj
 0001:0002e070       _CG_GetColorForHealth      1002f070 f   cg_drawtools.obj
 0001:0002e200       _UI_DrawProportionalString 1002f200 f   cg_drawtools.obj
 0001:0002e5b0       _CG_DrawRect               1002f5b0 f   cg_drawtools.obj
 0001:0002e650       _CG_DrawSides              1002f650 f   cg_drawtools.obj
 0001:0002e750       _CG_DrawTopBottom          1002f750 f   cg_drawtools.obj
 0001:0002e910       _CG_DrawChar               1002f910 f   cg_drawtools.obj
 0001:0002ed10       _UI_DrawBannerString       1002fd10 f   cg_drawtools.obj
 0001:0002ee60       _UI_ProportionalStringWidth 1002fe60 f   cg_drawtools.obj
 0001:0002f100       _UI_ProportionalSizeScale  10030100 f   cg_drawtools.obj
 0001:0002f220       _CG_SmokePuff              10030220 f   cg_effects.obj
 0001:0002f5b0       _CG_BubbleTrail            100305b0 f   cg_effects.obj
 0001:0002fb20       _CG_SpawnEffect            10030b20 f   cg_effects.obj
 0001:0002fcc0       _CG_KamikazeEffect         10030cc0 f   cg_effects.obj
 0001:0002fe60       _CG_ObeliskExplode         10030e60 f   cg_effects.obj
 0001:0002ff80       _CG_ObeliskPain            10030f80 f   cg_effects.obj
 0001:0002ffe0       _CG_InvulnerabilityImpact  10030fe0 f   cg_effects.obj
 0001:000301a0       _CG_InvulnerabilityJuiced  100311a0 f   cg_effects.obj
 0001:00030390       _CG_LightningBoltBeam      10031390 f   cg_effects.obj
 0001:000304f0       _CG_LightningDischargeEffect 100314f0 f   cg_effects.obj
 0001:000305b0       _CG_ScorePlum              100315b0 f   cg_effects.obj
 0001:00030850       _CG_ThawPlayer             10031850 f   cg_effects.obj
 0001:00030a70       _CG_GibPlayer              10031a70 f   cg_effects.obj
 0001:00030f80       _CG_BigExplode             10031f80 f   cg_effects.obj
 0001:00030fa0       _CG_BigExplodeJuiced       10031fa0 f   cg_effects.obj
 0001:00030fc0       _CG_Bleed                  10031fc0 f   cg_effects.obj
 0001:000310c0       _CG_MakeExplosion          100320c0 f   cg_effects.obj
 0001:00031c90       _CG_LaunchExplode          10032c90 f   cg_effects.obj
 0001:000326a0       _CG_LaunchGib              100336a0 f   cg_effects.obj
 0001:00032970       _CG_SetEntitySoundPosition 10033970 f   cg_ents.obj
 0001:00032a80       _CG_AddPacketEntities      10033a80 f   cg_ents.obj
 0001:00032ca0       _CG_Beam                   10033ca0 f   cg_ents.obj
 0001:00032ec0       _CG_AdjustPositionForMover 10033ec0 f   cg_ents.obj
 0001:000331b0       _CG_PositionEntityOnTag    100341b0 f   cg_ents.obj
 0001:00033390       _CG_PositionRotatedEntityOnTag 10034390 f   cg_ents.obj
 0001:00037810       _CG_CheckEvents            10038810 f   cg_event.obj
 0001:000378f0       _CG_PlaceString            100388f0 f   cg_event.obj
 0001:00037a40       _CG_GetOvertimeCount       10038a40 f   cg_event.obj
 0001:00037af0       _CG_EntityEvent            10038af0 f   cg_event.obj
 0001:00039e70       _CG_PainEvent              1003ae70 f   cg_event.obj
 0001:00039f10       _CG_PruneObituaryFeed      1003af10 f   cg_event.obj
 0001:00039f50       _CG_DamagePlumsEnabled     1003af50 f   cg_event.obj
 0001:00039f80       _CG_ShouldRenderDamagePlumForWeapon 1003af80 f   cg_event.obj
 0001:00039fc0       _CG_GetDamagePlumColorStyle 1003afc0 f   cg_event.obj
 0001:00039fd0       _CG_StartScoreboardTimer   1003afd0 f   cg_event.obj
 0001:0003a000       _CG_StopScoreboardTimer    1003b000 f   cg_event.obj
 0001:0003a030       _CG_GetScoreboardTimerSeconds 1003b030 f   cg_event.obj
 0001:0003c630       _CG_ResetLoadingState      1003d630 f   cg_info.obj
 0001:0003c680       _CG_AdvanceLoadingProgress 1003d680 f   cg_info.obj
 0001:0003c6a0       _CG_LoadingString          1003d6a0 f   cg_info.obj
 0001:0003c6c0       _CG_LoadingItem            1003d6c0 f   cg_info.obj
 0001:0003c720       _CG_LoadingClient          1003d720 f   cg_info.obj
 0001:0003c910       _CG_DrawInformation        1003d910 f   cg_info.obj
 0001:0003d210       _CG_InitLocalEntities      1003e210 f   cg_localents.obj
 0001:0003d290       _CG_AllocLocalEntity       1003e290 f   cg_localents.obj
 0001:0003d310       _CG_AddLocalEntities       1003e310 f   cg_localents.obj
 0001:0003d6f0       _CG_FreeLocalEntity        1003e6f0 f   cg_localents.obj
 0001:0003d740       _CG_BloodTrail             1003e740 f   cg_localents.obj
 0001:0003d9c0       _CG_FragmentBounceMark     1003e9c0 f   cg_localents.obj
 0001:0003dcc0       _CG_FragmentBounceSound    1003ecc0 f   cg_localents.obj
 0001:0003dda0       _CG_ReflectVelocity        1003eda0 f   cg_localents.obj
 0001:0003e4c0       _CG_AddFragment            1003f4c0 f   cg_localents.obj
 0001:0003e510       _CG_AddFadeRGB             1003f510 f   cg_localents.obj
 0001:00040300       _CG_AddKamikaze            10041300 f   cg_localents.obj
 0001:00040320       _CG_AddInvulnerabilityImpact 10041320 f   cg_localents.obj
 0001:00040340       _CG_AddInvulnerabilityJuiced 10041340 f   cg_localents.obj
 0001:000404a0       _CG_AddRefEntity           100414a0 f   cg_localents.obj
 0001:000404e0       _CG_AddScorePlum           100414e0 f   cg_localents.obj
 0001:00040c40       _Com_Error                 10041c40 f   cg_main.obj
 0001:00040ca0       _Com_Printf                10041ca0 f   cg_main.obj
 0001:00040d00       _CG_ConfigString           10041d00 f   cg_main.obj
 0001:00040d40       _CG_Argv                   10041d40 f   cg_main.obj
 0001:00040d60       _CG_Printf                 10041d60 f   cg_main.obj
 0001:00040de0       _CG_Error                  10041de0 f   cg_main.obj
 0001:00040e40       _CG_StartMusic             10041e40 f   cg_main.obj
 0001:00040ed0       _CG_UpdateCvars            10041ed0 f   cg_main.obj
 0001:00041460       _CG_CrosshairPlayer        10042460 f   cg_main.obj
 0001:00041490       _CG_LastAttacker           10042490 f   cg_main.obj
 0001:000414c0       _CG_GetChatHistoryLength   100424c0 f   cg_main.obj
 0001:00041500       _CG_ShouldDisplayVoiceIndicator 10042500 f   cg_main.obj
 0001:00041530       _CG_InitBrowserRuntime     10042530 f   cg_main.obj
 0001:00041540       _CG_ResetBrowserOverlayState 10042540 f   cg_main.obj
 0001:00041560       _CG_SetBrowserFeederSelection 10042560 f   cg_main.obj
 0001:00041580       _CG_LoadMenus              10042580 f   cg_main.obj
 0001:00041790       _CG_LoadHudMenu            10042790 f   cg_main.obj
 0001:00041830       _CG_RegisterCountryFlag    10042830 f   cg_main.obj
 0001:000418e0       _CG_SetScoreSelection      100428e0 f   cg_main.obj
 0001:000419c0       _CG_BuildSpectatorString   100429c0 f   cg_main.obj
 0001:00041db0       _CG_SetClientSpeakingState 10042db0 f   cg_main.obj
 0001:00041e60       _CG_PushPrintString        10042e60 f   cg_main.obj
 0001:00042260       _CG_GetColorForIndex       10043260 f   cg_main.obj
 0001:00042300       _CG_ColorCharToIndex       10043300 f   cg_main.obj
 0001:00042360       _CG_StartingWeaponIndexFromToken 10043360 f   cg_main.obj
 0001:00042430       _CG_HandleAutoActionsIntermission 10043430 f   cg_main.obj
 0001:00042560       _CG_RunQueuedAutoActions   10043560 f   cg_main.obj
 0001:000425e0       _CG_Init                   100435e0 f   cg_main.obj
 0001:00042a30       _CG_Shutdown               10043a30 f   cg_main.obj
 0001:00042a70       _CG_RegisterCvars          10043a70 f   cg_main.obj
 0001:000435c0       _CG_Cvar_GetString         100445c0 f   cg_main.obj
 0001:00043660       _vmMain                    10044660 f   cg_main.obj
 0001:00043890       _CG_GetNativeExportTable   10044890 f   cg_main.obj
 0001:00048050       _CG_GetMenuBuffer          10049050 f   cg_main.obj
 0001:00048120       _CG_Asset_Parse            10049120 f   cg_main.obj
 0001:00048670       _CG_ParseMenu              10049670 f   cg_main.obj
 0001:00048780       _CG_Load_Menu              10049780 f   cg_main.obj
 0001:0004abc0       _CG_Text_PaintWithCursor   1004bbc0 f   cg_main.obj
 0001:0004b760       _CG_AssetCache             1004c760 f   cg_main.obj
 0001:0004ba00       _CG_KeyEvent               1004ca00 f   cg_newdraw.obj
 0001:0004ba90       _CG_MouseEvent             1004ca90 f   cg_newdraw.obj
 0001:0004bbc0       _CG_EventHandling          1004cbc0 f   cg_newdraw.obj
 0001:0004bc00       _CG_GetSelectedScore       1004cc00 f   cg_newdraw.obj
 0001:0004bc40       _CG_RaceResetState         1004cc40 f   cg_newdraw.obj
 0001:0004bce0       _CG_ParseRaceInfoString    1004cce0 f   cg_newdraw.obj
 0001:0004bef0       _CG_ParseRaceStatusString  1004cef0 f   cg_newdraw.obj
 0001:0004c2d0       _CG_RacePlayCue            1004d2d0 f   cg_newdraw.obj
 0001:0004c340       _CG_OwnerDraw              1004d340 f   cg_newdraw.obj
 0001:0004dd40       _CG_SelectPrevPlayer       1004ed40 f   cg_newdraw.obj
 0001:0004dd90       _CG_SelectNextPlayer       1004ed90 f   cg_newdraw.obj
 0001:0004ddd0       _CG_SpectatorFollowCycle   1004edd0 f   cg_newdraw.obj
 0001:0004dee0       _CG_SpectatorTrackEvent    1004eee0 f   cg_newdraw.obj
 0001:0004df70       _CG_UpdateSpectatorTracking 1004ef70 f   cg_newdraw.obj
 0001:0004e050       _CG_IsSpectatorCamera      1004f050 f   cg_newdraw.obj
 0001:0004e0c0       _CG_SpectatorFollowRequest 1004f0c0 f   cg_newdraw.obj
 0001:0004e160       _CG_StopSpectatorFollow    1004f160 f   cg_newdraw.obj
 0001:0004e190       _CG_SetSpectatorCameraLock 1004f190 f   cg_newdraw.obj
 0001:0004e230       _CG_GetValue               1004f230 f   cg_newdraw.obj
 0001:0004e3f0       _CG_OwnerDrawVisible       1004f3f0 f   cg_newdraw.obj
 0001:0004e950       _CG_RunMenuScript          1004f950 f   cg_newdraw.obj
 0001:0004ea80       _CG_SetPrintString         1004fa80 f   cg_newdraw.obj
 0001:0004ead0       _CG_InitTeamChat           1004fad0 f   cg_newdraw.obj
 0001:0004eb60       _CG_GetTeamColor           1004fb60 f   cg_newdraw.obj
 0001:0004eca0       _CG_GetTeamName            1004fca0 f   cg_newdraw.obj
 0001:0004ed60       _CG_GetGameStatusText      1004fd60 f   cg_newdraw.obj
 0001:0004eef0       _CG_GetKillerText          1004fef0 f   cg_newdraw.obj
 0001:0004ef30       _CG_GetRaceStatusText      1004ff30 f   cg_newdraw.obj
 0001:0004ef80       _CG_GetRaceTimesPrimaryText 1004ff80 f   cg_newdraw.obj
 0001:0004efd0       _CG_GetRaceTimesSecondaryText 1004ffd0 f   cg_newdraw.obj
 0001:0004f020       _CG_CheckOrderPending      10050020 f   cg_newdraw.obj
 0001:0004f250       _CG_GameTypeString         10050250 f   cg_newdraw.obj
 0001:0004f310       _CG_RegisterGameTypeIcons  10050310 f   cg_newdraw.obj
 0001:0004f490       _CG_YourTeamHasFlag        10050490 f   cg_newdraw.obj
 0001:0004f540       _CG_OtherTeamHasFlag       10050540 f   cg_newdraw.obj
 0001:0004f5f0       _CG_StatusHandle           100505f0 f   cg_newdraw.obj
 0001:0004f6a0       _CG_ShouldDrawAccOverlay   100506a0 f   cg_newdraw.obj
 0001:0004f710       _CG_DrawNewTeamInfo        10050710 f   cg_newdraw.obj
 0001:0004fc40       _CG_DrawTeamSpectators     10050c40 f   cg_newdraw.obj
 0001:0004feb0       _CG_DrawMedal              10050eb0 f   cg_newdraw.obj
 0001:00050180       _CG_TeamOverlayXValue      10051180 f   cg_newdraw.obj
 0001:00050190       _CG_TeamOverlayYValue      10051190 f   cg_newdraw.obj
 0001:000501a0       _CG_TeamOverlaySizeValue   100511a0 f   cg_newdraw.obj
 0001:000501b0       _CG_TeamOverlayOpacityValue 100511b0 f   cg_newdraw.obj
 0001:000501c0       _CG_IsSelfOnTeamOverlay    100511c0 f   cg_newdraw.obj
 0001:0005aeb0       _CG_GetSelectedPlayer      1005beb0 f   cg_newdraw.obj
 0001:0005f7b0       _CG_HideTeamMenu           100607b0 f   cg_newdraw.obj
 0001:0005f820       _CG_ShowTeamMenu           10060820 f   cg_newdraw.obj
 0001:0005fb00       _CG_InitMarkPolys          10060b00 f   cg_marks.obj
 0001:0005fb80       _CG_AddMarks               10060b80 f   cg_marks.obj
 0001:0005fe80       _CG_ImpactMark             10060e80 f   cg_marks.obj
 0001:000606f0       _CG_FreeMarkPoly           100616f0 f   cg_marks.obj
 0001:00060740       _CG_AllocMark              10061740 f   cg_marks.obj
 0001:00060930       _CG_ClearParticles         10061930 f   cg_particles.obj
 0001:00060a70       _CG_AddParticles           10061a70 f   cg_particles.obj
 0001:00061000       _CG_ParticleExplosion      10062000 f   cg_particles.obj
 0001:00061290       _CG_NewParticleArea        10062290 f   cg_particles.obj
 0001:00068510       _CG_SnowLink               10069510 f   cg_particles.obj
 0001:00068700       _CG_Player                 10069700 f   cg_players.obj
 0001:00069fd0       _CG_ResetPlayerEntity      1006afd0 f   cg_players.obj
 0001:0006a250       _CG_AddRefEntityWithPowerups 1006b250 f   cg_players.obj
 0001:0006a330       _CG_NewClientInfo          1006b330 f   cg_players.obj
 0001:0006aa70       _CG_ApplyModelOverrides    1006ba70 f   cg_players.obj
 0001:0006aad0       _CG_RefreshClientHeadOffsets 1006bad0 f   cg_players.obj
 0001:0006ab20       _CG_CustomSound            1006bb20 f   cg_players.obj
 0001:0006abf0       _CG_LoadDeferredPlayers    1006bbf0 f   cg_players.obj
 0001:000721c0       _CG_LightVerts             100731c0 f   cg_players.obj
 0001:000724a0       _CG_Respawn                100734a0 f   cg_playerstate.obj
 0001:00072520       _CG_TransitionPlayerState  10073520 f   cg_playerstate.obj
 0001:00072690       _CG_CheckChangedPredictableEvents 10073690 f   cg_playerstate.obj
 0001:00072790       _pushReward                10073790 f   cg_playerstate.obj
 0001:00072800       _CG_CheckAmmo              10073800 f   cg_playerstate.obj
 0001:00072910       _CG_DamageFeedback         10073910 f   cg_playerstate.obj
 0001:00073190       _CG_CheckPlayerstateEvents 10074190 f   cg_playerstate.obj
 0001:000733a0       _CG_CheckLocalSounds       100743a0 f   cg_playerstate.obj
 0001:00074020       _CG_BuildSolidList         10075020 f   cg_predict.obj
 0001:00074130       _CG_PointContents          10075130 f   cg_predict.obj
 0001:000741f0       _CG_Trace                  100751f0 f   cg_predict.obj
 0001:000742c0       _CG_PredictPlayerState     100752c0 f   cg_predict.obj
 0001:00075ba0       _CG_DamageBlendBlob        10076ba0 f   cg_screen.obj
 0001:00075fa0       _CG_IsJoinGameMenuCaptureActive 10076fa0 f   cg_screen.obj
 0001:00075fb0       _CG_ResetJoinGameMenuCaptureState 10076fb0 f   cg_screen.obj
 0001:00075fc0       _CG_CloseJoinGameMenu      10076fc0 f   cg_screen.obj
 0001:00076040       _CG_DrawPregameJoinGameMenu 10077040 f   cg_screen.obj
 0001:00076080       _CG_DrawJoinGameMenu       10077080 f   cg_screen.obj
 0001:000765f0       _CG_DrawOldScoreboard      100775f0 f   cg_scoreboard.obj
 0001:00076f20       _CG_DrawOldTourneyScoreboard 10077f20 f   cg_scoreboard.obj
 0001:000772d0       _CG_BuildHudScoreboard     100782d0 f   cg_scoreboard.obj
 0001:00077380       _CG_GetHudScoreboard       10078380 f   cg_scoreboard.obj
 0001:00077390       _CG_GetHudScoreboardEntry  10078390 f   cg_scoreboard.obj
 0001:00077420       _CG_GetHudScoreboardTeamCount 10078420 f   cg_scoreboard.obj
 0001:00077450       _CG_TouchCompetitiveScores 10078450 f   cg_scoreboard.obj
 0001:000792a0       _CG_ExecuteNewServerCommands 1007a2a0 f   cg_servercmds.obj
 0001:000792e0       _CG_ParseServerinfo        1007a2e0 f   cg_servercmds.obj
 0001:000797a0       _CG_SetConfigValues        1007a7a0 f   cg_servercmds.obj
 0001:00079a10       _CG_GetMatchTimeoutStartTime 1007aa10 f   cg_servercmds.obj
 0001:00079a20       _CG_ParsePmoveConfigString 1007aa20 f   cg_servercmds.obj
 0001:00079a70       _CG_LoadVoiceChats         1007aa70 f   cg_servercmds.obj
 0001:00079b90       _CG_ShaderStateChanged     1007ab90 f   cg_servercmds.obj
 0001:00079db0       _CG_VoiceChatLocal         1007adb0 f   cg_servercmds.obj
 0001:00079f50       _CG_PlayBufferedVoiceChats 1007af50 f   cg_servercmds.obj
 0001:000813c0       _CG_ParseVoiceChats        100823c0 f   cg_servercmds.obj
 0001:000818e0       _CG_HeadModelVoiceChats    100828e0 f   cg_servercmds.obj
 0001:00081a80       _CG_GetVoiceChat           10082a80 f   cg_servercmds.obj
 0001:00081b50       _CG_VoiceChatListForClient 10082b50 f   cg_servercmds.obj
 0001:00081fb0       _CG_PlayVoiceChat          10082fb0 f   cg_servercmds.obj
 0001:000820b0       _CG_AddBufferedVoiceChat   100830b0 f   cg_servercmds.obj
 0001:00082140       _CG_VoiceChat              10083140 f   cg_servercmds.obj
 0001:000830f0       _CG_QueueClientInfoContextRefresh 100840f0 f   cg_snapshot.obj
 0001:00083100       _CG_ProcessSnapshots       10084100 f   cg_snapshot.obj
 0001:000833e0       _CG_SetInitialSnapshot     100843e0 f   cg_snapshot.obj
 0001:00083900       _trap_PC_AddGlobalDefine   10084900 f   cg_syscalls.obj
 0001:00083920       _trap_PC_LoadSource        10084920 f   cg_syscalls.obj
 0001:00083940       _trap_PC_FreeSource        10084940 f   cg_syscalls.obj
 0001:00083960       _trap_PC_ReadToken         10084960 f   cg_syscalls.obj
 0001:00083980       _trap_PC_SourceFileAndLine 10084980 f   cg_syscalls.obj
 0001:000839a0       _trap_Print                100849a0 f   cg_syscalls.obj
 0001:000839c0       _trap_Error                100849c0 f   cg_syscalls.obj
 0001:000839e0       _trap_Milliseconds         100849e0 f   cg_syscalls.obj
 0001:000839f0       _trap_Cvar_Register        100849f0 f   cg_syscalls.obj
 0001:00083a10       _trap_Cvar_Update          10084a10 f   cg_syscalls.obj
 0001:00083a30       _trap_Cvar_Set             10084a30 f   cg_syscalls.obj
 0001:00083a50       _trap_Cvar_VariableValue   10084a50 f   cg_syscalls.obj
 0001:00083ab0       _trap_Cvar_VariableStringBuffer 10084ab0 f   cg_syscalls.obj
 0001:00083ad0       _trap_Argc                 10084ad0 f   cg_syscalls.obj
 0001:00083ae0       _trap_Argv                 10084ae0 f   cg_syscalls.obj
 0001:00083b00       _trap_Args                 10084b00 f   cg_syscalls.obj
 0001:00083b20       _trap_FS_FOpenFile         10084b20 f   cg_syscalls.obj
 0001:00083b40       _trap_FS_Read              10084b40 f   cg_syscalls.obj
 0001:00083b60       _trap_FS_Write             10084b60 f   cg_syscalls.obj
 0001:00083b80       _trap_FS_FCloseFile        10084b80 f   cg_syscalls.obj
 0001:00083ba0       _trap_FS_Seek              10084ba0 f   cg_syscalls.obj
 0001:00083bc0       _trap_SendConsoleCommand   10084bc0 f   cg_syscalls.obj
 0001:00083be0       _trap_AddCommand           10084be0 f   cg_syscalls.obj
 0001:00083c00       _trap_RemoveCommand        10084c00 f   cg_syscalls.obj
 0001:00083c20       _trap_SendClientCommand    10084c20 f   cg_syscalls.obj
 0001:00083c40       _trap_UpdateScreen         10084c40 f   cg_syscalls.obj
 0001:00083c50       _trap_CM_LoadMap           10084c50 f   cg_syscalls.obj
 0001:00083c70       _trap_CM_NumInlineModels   10084c70 f   cg_syscalls.obj
 0001:00083c80       _trap_CM_InlineModel       10084c80 f   cg_syscalls.obj
 0001:00083ca0       _trap_CM_LoadModel         10084ca0 f   cg_syscalls.obj
 0001:00083cc0       _trap_CM_TempBoxModel      10084cc0 f   cg_syscalls.obj
 0001:00083ce0       _trap_CM_TempCapsuleModel  10084ce0 f   cg_syscalls.obj
 0001:00083d00       _trap_CM_PointContents     10084d00 f   cg_syscalls.obj
 0001:00083d20       _trap_CM_TransformedPointContents 10084d20 f   cg_syscalls.obj
 0001:00083d40       _trap_CM_BoxTrace          10084d40 f   cg_syscalls.obj
 0001:00083d70       _trap_CM_CapsuleTrace      10084d70 f   cg_syscalls.obj
 0001:00083da0       _trap_CM_TransformedBoxTrace 10084da0 f   cg_syscalls.obj
 0001:00083de0       _trap_CM_TransformedCapsuleTrace 10084de0 f   cg_syscalls.obj
 0001:00083e20       _trap_CM_MarkFragments     10084e20 f   cg_syscalls.obj
 0001:00083e50       _trap_S_StartSound         10084e50 f   cg_syscalls.obj
 0001:00083e70       _trap_S_StopLoopingSound   10084e70 f   cg_syscalls.obj
 0001:00083e90       _trap_S_StartLocalSound    10084e90 f   cg_syscalls.obj
 0001:00083eb0       _trap_S_ClearLoopingSounds 10084eb0 f   cg_syscalls.obj
 0001:00083ee0       _trap_S_AddLoopingSound    10084ee0 f   cg_syscalls.obj
 0001:00083f00       _trap_S_AddRealLoopingSound 10084f00 f   cg_syscalls.obj
 0001:00083f20       _trap_S_UpdateEntityPosition 10084f20 f   cg_syscalls.obj
 0001:00083f40       _trap_S_Respatialize       10084f40 f   cg_syscalls.obj
 0001:00083f60       _trap_S_RegisterSound      10084f60 f   cg_syscalls.obj
 0001:00083fa0       _trap_S_StartBackgroundTrack 10084fa0 f   cg_syscalls.obj
 0001:00083fc0       _trap_S_StopBackgroundTrack 10084fc0 f   cg_syscalls.obj
 0001:00083fd0       _trap_R_LoadWorldMap       10084fd0 f   cg_syscalls.obj
 0001:00083ff0       _trap_R_RegisterModel      10084ff0 f   cg_syscalls.obj
 0001:00084010       _trap_R_RegisterSkin       10085010 f   cg_syscalls.obj
 0001:00084030       _trap_R_RegisterShader     10085030 f   cg_syscalls.obj
 0001:00084050       _trap_R_RegisterShaderNoMip 10085050 f   cg_syscalls.obj
 0001:00084070       _trap_R_ClearScene         10085070 f   cg_syscalls.obj
 0001:00084080       _trap_R_AddRefEntityToScene 10085080 f   cg_syscalls.obj
 0001:000840a0       _trap_R_AddPolyToScene     100850a0 f   cg_syscalls.obj
 0001:000840c0       _trap_R_AddPolysToScene    100850c0 f   cg_syscalls.obj
 0001:000840e0       _trap_R_AddLightToScene    100850e0 f   cg_syscalls.obj
 0001:00084150       _trap_R_AddAdditiveLightToScene 10085150 f   cg_syscalls.obj
 0001:000841c0       _trap_R_LightForPoint      100851c0 f   cg_syscalls.obj
 0001:000841e0       _trap_R_RenderScene        100851e0 f   cg_syscalls.obj
 0001:00084200       _trap_R_SetColor           10085200 f   cg_syscalls.obj
 0001:00084220       _trap_R_DrawStretchPic     10085220 f   cg_syscalls.obj
 0001:000842e0       _trap_R_ModelBounds        100852e0 f   cg_syscalls.obj
 0001:00084300       _trap_R_LerpTag            10085300 f   cg_syscalls.obj
 0001:00084340       _trap_R_RemapShader        10085340 f   cg_syscalls.obj
 0001:00084360       _trap_GetGlconfig          10085360 f   cg_syscalls.obj
 0001:00084380       _trap_GetGameState         10085380 f   cg_syscalls.obj
 0001:000843a0       _trap_GetCurrentSnapshotNumber 100853a0 f   cg_syscalls.obj
 0001:000843c0       _trap_GetSnapshot          100853c0 f   cg_syscalls.obj
 0001:00084400       _trap_GetServerCommand     10085400 f   cg_syscalls.obj
 0001:00084430       _trap_GetCurrentCmdNumber  10085430 f   cg_syscalls.obj
 0001:00084440       _trap_GetUserCmd           10085440 f   cg_syscalls.obj
 0001:00084480       _trap_SetUserCmdValue      10085480 f   cg_syscalls.obj
 0001:000844b0       _testPrintInt              100854b0 f   cg_syscalls.obj
 0001:000844d0       _testPrintFloat            100854d0 f   cg_syscalls.obj
 0001:00084500       _trap_MemoryRemaining      10085500 f   cg_syscalls.obj
 0001:00084510       _trap_R_RegisterFont       10085510 f   cg_syscalls.obj
 0001:00084530       _trap_Key_IsDown           10085530 f   cg_syscalls.obj
 0001:00084560       _trap_Key_GetCatcher       10085560 f   cg_syscalls.obj
 0001:00084570       _trap_Key_SetCatcher       10085570 f   cg_syscalls.obj
 0001:00084590       _trap_Key_GetKey           10085590 f   cg_syscalls.obj
 0001:000845b0       _trap_Key_KeynumToStringBuf 100855b0 f   cg_syscalls.obj
 0001:000845d0       _trap_Key_GetBindingBuf    100855d0 f   cg_syscalls.obj
 0001:000845f0       _trap_Key_SetBinding       100855f0 f   cg_syscalls.obj
 0001:00084610       _trap_Key_GetOverstrikeMode 10085610 f   cg_syscalls.obj
 0001:00084640       _trap_Key_SetOverstrikeMode 10085640 f   cg_syscalls.obj
 0001:00084670       _trap_Cmd_ExecuteText      10085670 f   cg_syscalls.obj
 0001:00084690       _trap_RealTime             10085690 f   cg_syscalls.obj
 0001:000846b0       _trap_QL_Cvar_RegisterRange 100856b0 f   cg_syscalls.obj
 0001:00084700       _trap_QL_Cvar_Reset        10085700 f   cg_syscalls.obj
 0001:00084730       _trap_QL_FS_GetFileList    10085730 f   cg_syscalls.obj
 0001:00084770       _trap_QL_S_StartSoundVolume 10085770 f   cg_syscalls.obj
 0001:000847b0       _trap_QL_S_StartLocalSoundVolume 100857b0 f   cg_syscalls.obj
 0001:000847f0       _trap_QL_SetupAdvertCellShader 100857f0 f   cg_syscalls.obj
 0001:00084830       _trap_QL_RefreshAdvertCellShader 10085830 f   cg_syscalls.obj
 0001:00084870       _trap_QL_SetActiveAdvert   10085870 f   cg_syscalls.obj
 0001:000848a0       _trap_QL_UpdateAdvert      100858a0 f   cg_syscalls.obj
 0001:000848d0       _trap_QL_AdvertisementBridge_SetMapPath 100858d0 f   cg_syscalls.obj
 0001:00084900       _trap_QL_IsClientMuted     10085900 f   cg_syscalls.obj
 0001:00084930       _trap_QL_ToggleClientMute  10085930 f   cg_syscalls.obj
 0001:00084960       _trap_AdvertisementBridge_InitCGame 10085960 f   cg_syscalls.obj
 0001:00084970       _trap_AdvertisementBridge_ShutdownCGame 10085970 f   cg_syscalls.obj
 0001:00084980       _trap_AdvertisementBridge_UpdateLoadingViewParameters 10085980 f   cg_syscalls.obj
 0001:00084990       _trap_AdvertisementBridge_SetFrameTime 10085990 f   cg_syscalls.obj
 0001:000849b0       _trap_QL_AdvertisementBridge_UpdateViewParameters 100859b0 f   cg_syscalls.obj
 0001:000849d0       _trap_QL_AdvertisementBridge_ClearDelay 100859d0 f   cg_syscalls.obj
 0001:000849f0       _trap_QL_TaggedCvarStringBuffer 100859f0 f   cg_syscalls.obj
 0001:00084a20       _trap_QL_R_MirrorPoint     10085a20 f   cg_syscalls.obj
 0001:00084a60       _trap_QL_R_MirrorVector    10085a60 f   cg_syscalls.obj
 0001:00084aa0       _trap_QL_DrawScaledText    10085aa0 f   cg_syscalls.obj
 0001:00084b10       _trap_QL_MeasureText       10085b10 f   cg_syscalls.obj
 0001:00084b60       _trap_QL_GetAvatarImageHandle 10085b60 f   cg_syscalls.obj
 0001:00084b90       _trap_CIN_PlayCinematic    10085b90 f   cg_syscalls.obj
 0001:00084bc0       _trap_CIN_StopCinematic    10085bc0 f   cg_syscalls.obj
 0001:00084be0       _trap_CIN_RunCinematic     10085be0 f   cg_syscalls.obj
 0001:00084c00       _trap_CIN_DrawCinematic    10085c00 f   cg_syscalls.obj
 0001:00084c20       _trap_CIN_SetExtents       10085c20 f   cg_syscalls.obj
 0001:00084c50       _trap_SnapVector           10085c50 f   cg_syscalls.obj
 0001:00084c70       _trap_GetEntityToken       10085c70 f   cg_syscalls.obj
 0001:00084cb0       _trap_R_inPVS              10085cb0 f   cg_syscalls.obj
 0001:000854b0       _dllEntry                  100864b0 f   cg_syscalls.obj
 0001:000854f0       _PASSFLOAT                 100864f0 f   cg_syscalls.obj
 0001:00085550       _CG_TestModel_f            10086550 f   cg_view.obj
 0001:00085740       _CG_TestGun_f              10086740 f   cg_view.obj
 0001:00085760       _CG_TestModelNextFrame_f   10086760 f   cg_view.obj
 0001:00085790       _CG_TestModelPrevFrame_f   10086790 f   cg_view.obj
 0001:000857d0       _CG_TestModelNextSkin_f    100867d0 f   cg_view.obj
 0001:00085800       _CG_TestModelPrevSkin_f    10086800 f   cg_view.obj
 0001:00085840       _CG_ZoomDown_f             10086840 f   cg_view.obj
 0001:000858a0       _CG_ZoomUp_f               100868a0 f   cg_view.obj
 0001:000858c0       _CG_AddBufferedSound       100868c0 f   cg_view.obj
 0001:00085970       _CG_ClearBufferedAnnouncements 10086970 f   cg_view.obj
 0001:00085980       _CG_DrawActiveFrame        10086980 f   cg_view.obj
 0001:00088e30       _CG_NextWeapon_f           10089e30 f   cg_weapons.obj
 0001:00088e40       _CG_PrevWeapon_f           10089e40 f   cg_weapons.obj
 0001:00088e50       _CG_Weapon_f               10089e50 f   cg_weapons.obj
 0001:00088f60       _CG_SetWeaponSelect        10089f60 f   cg_weapons.obj
 0001:00088fa0       _CG_RegisterWeapon         10089fa0 f   cg_weapons.obj
 0001:00089f70       _CG_RegisterItemVisuals    1008af70 f   cg_weapons.obj
 0001:0008a0a0       _CG_FireWeapon             1008b0a0 f   cg_weapons.obj
 0001:0008a310       _CG_MissileHitWall         1008b310 f   cg_weapons.obj
 0001:0008aba0       _CG_MissileHitWallDmgThrough 1008bba0 f   cg_weapons.obj
 0001:0008b030       _CG_MissileHitPlayer       1008c030 f   cg_weapons.obj
 0001:0008b0a0       _CG_ShotgunFire            1008c0a0 f   cg_weapons.obj
 0001:0008b370       _CG_ShotgunKillEffect      1008c370 f   cg_weapons.obj
 0001:0008b7c0       _CG_Bullet                 1008c7c0 f   cg_weapons.obj
 0001:0008b950       _CG_RailTrail              1008c950 f   cg_weapons.obj
 0001:0008c550       _CG_GrappleTrail           1008d550 f   cg_weapons.obj
 0001:0008c8b0       _CG_AddViewWeapon          1008d8b0 f   cg_weapons.obj
 0001:0008ce20       _CG_AddPlayerWeapon        1008de20 f   cg_weapons.obj
 0001:0008d770       _CG_DrawWeaponSelect       1008e770 f   cg_weapons.obj
 0001:0008d780       _CG_BuildPredictedRailForPlayerState 1008e780 f   cg_weapons.obj
 0001:0008de00       _CG_BuildPredictedBeamForPlayerState 1008ee00 f   cg_weapons.obj
 0001:0008e3b0       _CG_SelectHighestWeaponExcluding 1008f3b0 f   cg_weapons.obj
 0001:0008e430       _CG_OutOfAmmoChange        1008f430 f   cg_weapons.obj
 0001:00093d50       _CG_Tracer                 10094d50 f   cg_weapons.obj
 0001:00094d20       @__security_check_cookie@4 10095d20 f   MSVCRTD:secchk.obj
 0001:00094d40       ___raise_securityfailure   10095d40 f   MSVCRTD:gs_report.obj
 0001:00094d70       ___report_gsfailure        10095d70 f   MSVCRTD:gs_report.obj
 0001:00094e80       ___report_rangecheckfailure 10095e80 f   MSVCRTD:gs_report.obj
 0001:00094e90       ___report_securityfailure  10095e90 f   MSVCRTD:gs_report.obj
 0001:00094f70       ___report_securityfailureEx 10095f70 f   MSVCRTD:gs_report.obj
 0001:000950a0       __chkstk                   100960a0 f   MSVCRTD:chkstk.obj
 0001:000950a0       __alloca_probe             100960a0 f   MSVCRTD:chkstk.obj
 0001:000950d0       __ftol2_sse                100960d0 f   MSVCRTD:ftol2.obj
 0001:000950d9       __ftol2_pentium4           100960d9 f   MSVCRTD:ftol2.obj
 0001:000950ec       __ftol2_sse_excpt          100960ec f   MSVCRTD:ftol2.obj
 0001:00095110       __ftol2                    10096110 f   MSVCRTD:ftol2.obj
 0001:00095190       __allmul                   10096190 f   MSVCRTD:llmul.obj
 0001:000951d0       __aulldiv                  100961d0 f   MSVCRTD:ulldiv.obj
 0001:00095240       __aullshr                  10096240 f   MSVCRTD:ullshr.obj
 0001:00095700       __CRT_INIT@12              10096700 f   MSVCRTD:dll_dllmain.obj
 0001:00095720       __DllMainCRTStartup@12     10096720 f   MSVCRTD:dll_dllmain.obj
 0001:00095750       ___isa_available_init      10096750 f   MSVCRTD:cpu_disp.obj
 0001:00095aa0       ___security_init_cookie    10096aa0 f   MSVCRTD:gs_support.obj
 0001:00095b20       _DllMain@12                10096b20 f   MSVCRTD:dll_dllmain_stub.obj
 0001:00095b50       ?__scrt_initialize_type_info@@YAXXZ 10096b50 f   MSVCRTD:tncleanup.obj
 0001:00095b60       ?__scrt_uninitialize_type_info@@YAXXZ 10096b60 f   MSVCRTD:tncleanup.obj
 0001:00095b80       ___local_stdio_scanf_options 10096b80 f i MSVCRTD:default_local_stdio_options.obj
 0001:00095b90       ___scrt_initialize_default_local_stdio_options 10096b90 f   MSVCRTD:default_local_stdio_options.obj
 0001:00095bd0       ??$__crt_fast_decode_pointer@PAP6AXXZ@@YAPAP6AXXZQAP6AXXZ@Z 10096bd0 f i MSVCRTD:utility.obj
 0001:00095c00       ??$__crt_fast_encode_pointer@PAP6AXXZ@@YAPAP6AXXZQAP6AXXZ@Z 10096c00 f i MSVCRTD:utility.obj
 0001:00095c30       ?__crt_rotate_pointer_value@@YAIIH@Z 10096c30 f i MSVCRTD:utility.obj
 0001:00095c40       ?configure_argv@__scrt_narrow_argv_policy@@SAHXZ 10096c40 f i MSVCRTD:utility.obj
 0001:00095cf0       ?initialize_environment@__scrt_narrow_environment_policy@@SAHXZ 10096cf0 f i MSVCRTD:utility.obj
 0001:00095d70       _NtCurrentTeb              10096d70 f i MSVCRTD:utility.obj
 0001:00095d80       ___scrt_acquire_startup_lock 10096d80 f   MSVCRTD:utility.obj
 0001:00095dd0       ___scrt_dllmain_after_initialize_c 10096dd0 f   MSVCRTD:utility.obj
 0001:00095e00       ___scrt_dllmain_before_initialize_c 10096e00 f   MSVCRTD:utility.obj
 0001:00095e20       ___scrt_dllmain_crt_thread_attach 10096e20 f   MSVCRTD:utility.obj
 0001:00095e50       ___scrt_dllmain_crt_thread_detach 10096e50 f   MSVCRTD:utility.obj
 0001:00095e70       ___scrt_dllmain_exception_filter 10096e70 f   MSVCRTD:utility.obj
 0001:00095ec0       ___scrt_dllmain_uninitialize_c 10096ec0 f   MSVCRTD:utility.obj
 0001:00095ef0       ___scrt_dllmain_uninitialize_critical 10096ef0 f   MSVCRTD:utility.obj
 0001:00095f10       ___scrt_initialize_crt     10096f10 f   MSVCRTD:utility.obj
 0001:00095f80       ___scrt_initialize_onexit_tables 10096f80 f   MSVCRTD:utility.obj
 0001:00096060       ___scrt_is_nonwritable_in_current_image 10097060 f   MSVCRTD:utility.obj
 0001:00096190       ___scrt_release_startup_lock 10097190 f   MSVCRTD:utility.obj
 0001:000961c0       ___scrt_uninitialize_crt   100971c0 f   MSVCRTD:utility.obj
 0001:00096200       __onexit                   10097200 f   MSVCRTD:utility.obj
 0001:00096270       _at_quick_exit             10097270 f   MSVCRTD:utility.obj
 0001:000962c0       _atexit                    100972c0 f   MSVCRTD:utility.obj
 0001:000962f0       ___scrt_get_dyn_tls_init_callback 100972f0 f   MSVCRTD:dyn_tls_init.obj
 0001:00096300       ___scrt_fastfail           10097300 f   MSVCRTD:utility_desktop.obj
 0001:00096440       ___scrt_get_show_window_mode 10097440 f   MSVCRTD:utility_desktop.obj
 0001:00096480       ___scrt_initialize_mta     10097480 f   MSVCRTD:utility_desktop.obj
 0001:00096490       ___scrt_initialize_winrt   10097490 f   MSVCRTD:utility_desktop.obj
 0001:000964a0       ___scrt_is_managed_app     100974a0 f   MSVCRTD:utility_desktop.obj
 0001:00096530       ___scrt_set_unhandled_exception_filter 10097530 f   MSVCRTD:utility_desktop.obj
 0001:00096540       ___scrt_exe_initialize_mta 10097540 f   MSVCRTD:utility_desktop.obj
 0001:00096540       ___scrt_stub_for_initialize_mta 10097540 f   MSVCRTD:utility_desktop.obj
 0001:00096550       ___scrt_unhandled_exception_filter@4 10097550 f   MSVCRTD:utility_desktop.obj
 0001:000965b0       __crt_debugger_hook        100975b0 f   MSVCRTD:utility_desktop.obj
 0001:000965c0       __RTC_Initialize           100975c0 f   MSVCRTD:initsect.obj
 0001:000965f0       __RTC_Terminate            100975f0 f   MSVCRTD:initsect.obj
 0001:00096620       __except_handler4          10097620 f   MSVCRTD:chandler4gs.obj
 0001:00096650       @_guard_check_icall_nop@4  10097650 f i MSVCRTD:guard_support.obj
 0001:00096660       _ReadNoFence               10097660 f i MSVCRTD:guard_support.obj
 0001:00096680       _ReadPointerNoFence        10097680 f i MSVCRTD:guard_support.obj
 0001:000966a0       __guard_icall_checks_enforced 100976a0 f i MSVCRTD:guard_support.obj
 0001:000966d0       __get_startup_argv_mode    100976d0 f   MSVCRTD:argv_mode.obj
 0001:000966e0       ___scrt_is_ucrt_dll_in_use 100976e0 f   MSVCRTD:ucrt_detection.obj
 0001:00096704       _memset                    10097704 f   vcruntimed:VCRUNTIME140D.dll
 0001:0009670a       _memcpy                    1009770a f   vcruntimed:VCRUNTIME140D.dll
 0001:00096710       _strchr                    10097710 f   vcruntimed:VCRUNTIME140D.dll
 0001:00096716       _memmove                   10097716 f   vcruntimed:VCRUNTIME140D.dll
 0001:0009671c       _strstr                    1009771c f   vcruntimed:VCRUNTIME140D.dll
 0001:00096722       _strrchr                   10097722 f   vcruntimed:VCRUNTIME140D.dll
 0001:00096728       ___std_type_info_destroy_list 10097728 f   vcruntimed:VCRUNTIME140D.dll
 0001:0009672e       __except_handler4_common   1009772e f   vcruntimed:VCRUNTIME140D.dll
 0001:00096734       _cos                       10097734 f   ucrtd:ucrtbased.dll
 0001:0009673a       _sin                       1009773a f   ucrtd:ucrtbased.dll
 0001:00096740       _atof                      10097740 f   ucrtd:ucrtbased.dll
 0001:00096746       _abs                       10097746 f   ucrtd:ucrtbased.dll
 0001:0009674c       _fabs                      1009774c f   ucrtd:ucrtbased.dll
 0001:00096752       _sqrt                      10097752 f   ucrtd:ucrtbased.dll
 0001:00096758       __wassert                  10097758 f   ucrtd:ucrtbased.dll
 0001:0009675e       _atan2                     1009775e f   ucrtd:ucrtbased.dll
 0001:00096764       _rand                      10097764 f   ucrtd:ucrtbased.dll
 0001:0009676a       ___stdio_common_vsprintf   1009776a f   ucrtd:ucrtbased.dll
 0001:00096770       _strcat                    10097770 f   ucrtd:ucrtbased.dll
 0001:00096776       _strcmp                    10097776 f   ucrtd:ucrtbased.dll
 0001:0009677c       _strcpy                    1009777c f   ucrtd:ucrtbased.dll
 0001:00096782       _strlen                    10097782 f   ucrtd:ucrtbased.dll
 0001:00096788       _strncpy                   10097788 f   ucrtd:ucrtbased.dll
 0001:0009678e       _toupper                   1009778e f   ucrtd:ucrtbased.dll
 0001:00096794       _tolower                   10097794 f   ucrtd:ucrtbased.dll
 0001:0009679a       _ceil                      1009779a f   ucrtd:ucrtbased.dll
 0001:000967a0       _atoi                      100977a0 f   ucrtd:ucrtbased.dll
 0001:000967a6       _tan                       100977a6 f   ucrtd:ucrtbased.dll
 0001:000967ac       _qsort                     100977ac f   ucrtd:ucrtbased.dll
 0001:000967b2       _acos                      100977b2 f   ucrtd:ucrtbased.dll
 0001:000967b8       _strtoul                   100977b8 f   ucrtd:ucrtbased.dll
 0001:000967be       _floor                     100977be f   ucrtd:ucrtbased.dll
 0001:000967c4       _strtod                    100977c4 f   ucrtd:ucrtbased.dll
 0001:000967ca       _strtol                    100977ca f   ucrtd:ucrtbased.dll
 0001:000967d0       _strtoull                  100977d0 f   ucrtd:ucrtbased.dll
 0001:000967d6       __initterm                 100977d6 f   ucrtd:ucrtbased.dll
 0001:000967dc       __initterm_e               100977dc f   ucrtd:ucrtbased.dll
 0001:000967e2       __seh_filter_dll           100977e2 f   ucrtd:ucrtbased.dll
 0001:000967e8       __configure_narrow_argv    100977e8 f   ucrtd:ucrtbased.dll
 0001:000967ee       __initialize_narrow_environment 100977ee f   ucrtd:ucrtbased.dll
 0001:000967f4       __initialize_onexit_table  100977f4 f   ucrtd:ucrtbased.dll
 0001:000967fa       __register_onexit_function 100977fa f   ucrtd:ucrtbased.dll
 0001:00096800       __execute_onexit_table     10097800 f   ucrtd:ucrtbased.dll
 0001:00096806       __crt_atexit               10097806 f   ucrtd:ucrtbased.dll
 0001:0009680c       __crt_at_quick_exit        1009780c f   ucrtd:ucrtbased.dll
 0001:00096812       __cexit                    10097812 f   ucrtd:ucrtbased.dll
 0001:00096818       _terminate                 10097818 f   ucrtd:ucrtbased.dll
 0001:0009681e       _UnhandledExceptionFilter@4 1009781e f   kernel32:KERNEL32.dll
 0001:00096824       _SetUnhandledExceptionFilter@4 10097824 f   kernel32:KERNEL32.dll
 0001:0009682a       _GetCurrentProcess@0       1009782a f   kernel32:KERNEL32.dll
 0001:00096830       _TerminateProcess@8        10097830 f   kernel32:KERNEL32.dll
 0001:00096836       _IsProcessorFeaturePresent@4 10097836 f   kernel32:KERNEL32.dll
 0001:0009683c       _QueryPerformanceCounter@4 1009783c f   kernel32:KERNEL32.dll
 0001:00096842       _GetCurrentProcessId@0     10097842 f   kernel32:KERNEL32.dll
 0001:00096848       _GetCurrentThreadId@0      10097848 f   kernel32:KERNEL32.dll
 0001:0009684e       _GetSystemTimeAsFileTime@4 1009784e f   kernel32:KERNEL32.dll
 0001:00096854       _DisableThreadLibraryCalls@4 10097854 f   kernel32:KERNEL32.dll
 0001:0009685a       _InitializeSListHead@4     1009785a f   kernel32:KERNEL32.dll
 0001:00096860       _IsDebuggerPresent@0       10097860 f   kernel32:KERNEL32.dll
 0001:00096866       _GetStartupInfoW@4         10097866 f   kernel32:KERNEL32.dll
 0001:0009686c       _GetModuleHandleW@4        1009786c f   kernel32:KERNEL32.dll
 0001:00096880       ___vcrt_initialize         10097880 f   MSVCRTD:ucrt_stubs.obj
 0001:00096880       ___acrt_initialize         10097880 f   MSVCRTD:ucrt_stubs.obj
 0001:00096880       ___scrt_stub_for_acrt_initialize 10097880 f   MSVCRTD:ucrt_stubs.obj
 0001:00096890       ___acrt_thread_attach      10097890 f   MSVCRTD:ucrt_stubs.obj
 0001:00096890       ___vcrt_thread_attach      10097890 f   MSVCRTD:ucrt_stubs.obj
 0001:00096890       ___scrt_stub_for_acrt_thread_attach 10097890 f   MSVCRTD:ucrt_stubs.obj
 0001:000968a0       ___acrt_thread_detach      100978a0 f   MSVCRTD:ucrt_stubs.obj
 0001:000968a0       ___vcrt_thread_detach      100978a0 f   MSVCRTD:ucrt_stubs.obj
 0001:000968a0       ___scrt_stub_for_acrt_thread_detach 100978a0 f   MSVCRTD:ucrt_stubs.obj
 0001:000968b0       ___vcrt_uninitialize       100978b0 f   MSVCRTD:ucrt_stubs.obj
 0001:000968b0       ___scrt_stub_for_acrt_uninitialize 100978b0 f   MSVCRTD:ucrt_stubs.obj
 0001:000968b0       ___acrt_uninitialize       100978b0 f   MSVCRTD:ucrt_stubs.obj
 0001:000968c0       ___acrt_uninitialize_critical 100978c0 f   MSVCRTD:ucrt_stubs.obj
 0001:000968c0       ___vcrt_uninitialize_critical 100978c0 f   MSVCRTD:ucrt_stubs.obj
 0001:000968c0       ___scrt_stub_for_acrt_uninitialize_critical 100978c0 f   MSVCRTD:ucrt_stubs.obj
 0001:000968d0       __is_c_termination_complete 100978d0 f   MSVCRTD:ucrt_stubs.obj
 0001:000968d0       ___scrt_stub_for_is_c_termination_complete 100978d0 f   MSVCRTD:ucrt_stubs.obj
 0002:00000000       __imp__InitializeSListHead@4 10098000     kernel32:KERNEL32.dll
 0002:00000004       __imp__SetUnhandledExceptionFilter@4 10098004     kernel32:KERNEL32.dll
 0002:00000008       __imp__GetCurrentProcess@0 10098008     kernel32:KERNEL32.dll
 0002:0000000c       __imp__TerminateProcess@8  1009800c     kernel32:KERNEL32.dll
 0002:00000010       __imp__IsProcessorFeaturePresent@4 10098010     kernel32:KERNEL32.dll
 0002:00000014       __imp__QueryPerformanceCounter@4 10098014     kernel32:KERNEL32.dll
 0002:00000018       __imp__GetCurrentProcessId@0 10098018     kernel32:KERNEL32.dll
 0002:0000001c       __imp__GetCurrentThreadId@0 1009801c     kernel32:KERNEL32.dll
 0002:00000020       __imp__GetModuleHandleW@4  10098020     kernel32:KERNEL32.dll
 0002:00000024       __imp__GetStartupInfoW@4   10098024     kernel32:KERNEL32.dll
 0002:00000028       __imp__IsDebuggerPresent@0 10098028     kernel32:KERNEL32.dll
 0002:0000002c       __imp__UnhandledExceptionFilter@4 1009802c     kernel32:KERNEL32.dll
 0002:00000030       __imp__DisableThreadLibraryCalls@4 10098030     kernel32:KERNEL32.dll
 0002:00000034       __imp__GetSystemTimeAsFileTime@4 10098034     kernel32:KERNEL32.dll
 0002:00000038       \177KERNEL32_NULL_THUNK_DATA 10098038     kernel32:KERNEL32.dll
 0002:0000003c       __imp__strrchr             1009803c     vcruntimed:VCRUNTIME140D.dll
 0002:00000040       __imp__strstr              10098040     vcruntimed:VCRUNTIME140D.dll
 0002:00000044       __imp__memmove             10098044     vcruntimed:VCRUNTIME140D.dll
 0002:00000048       __imp__strchr              10098048     vcruntimed:VCRUNTIME140D.dll
 0002:0000004c       __imp__memcpy              1009804c     vcruntimed:VCRUNTIME140D.dll
 0002:00000050       __imp____std_type_info_destroy_list 10098050     vcruntimed:VCRUNTIME140D.dll
 0002:00000054       __imp___except_handler4_common 10098054     vcruntimed:VCRUNTIME140D.dll
 0002:00000058       __imp__memset              10098058     vcruntimed:VCRUNTIME140D.dll
 0002:0000005c       \177VCRUNTIME140D_NULL_THUNK_DATA 1009805c     vcruntimed:VCRUNTIME140D.dll
 0002:00000060       __imp__toupper             10098060     ucrtd:ucrtbased.dll
 0002:00000064       __imp__tolower             10098064     ucrtd:ucrtbased.dll
 0002:00000068       __imp__ceil                10098068     ucrtd:ucrtbased.dll
 0002:0000006c       __imp__atoi                1009806c     ucrtd:ucrtbased.dll
 0002:00000070       __imp__tan                 10098070     ucrtd:ucrtbased.dll
 0002:00000074       __imp__qsort               10098074     ucrtd:ucrtbased.dll
 0002:00000078       __imp__acos                10098078     ucrtd:ucrtbased.dll
 0002:0000007c       __imp__strtoul             1009807c     ucrtd:ucrtbased.dll
 0002:00000080       __imp__strlen              10098080     ucrtd:ucrtbased.dll
 0002:00000084       __imp__strtod              10098084     ucrtd:ucrtbased.dll
 0002:00000088       __imp__strtol              10098088     ucrtd:ucrtbased.dll
 0002:0000008c       __imp__strtoull            1009808c     ucrtd:ucrtbased.dll
 0002:00000090       __imp___initterm           10098090     ucrtd:ucrtbased.dll
 0002:00000094       __imp___initterm_e         10098094     ucrtd:ucrtbased.dll
 0002:00000098       __imp___seh_filter_dll     10098098     ucrtd:ucrtbased.dll
 0002:0000009c       __imp___configure_narrow_argv 1009809c     ucrtd:ucrtbased.dll
 0002:000000a0       __imp___initialize_narrow_environment 100980a0     ucrtd:ucrtbased.dll
 0002:000000a4       __imp___initialize_onexit_table 100980a4     ucrtd:ucrtbased.dll
 0002:000000a8       __imp___register_onexit_function 100980a8     ucrtd:ucrtbased.dll
 0002:000000ac       __imp___execute_onexit_table 100980ac     ucrtd:ucrtbased.dll
 0002:000000b0       __imp___crt_atexit         100980b0     ucrtd:ucrtbased.dll
 0002:000000b4       __imp___crt_at_quick_exit  100980b4     ucrtd:ucrtbased.dll
 0002:000000b8       __imp___cexit              100980b8     ucrtd:ucrtbased.dll
 0002:000000bc       __imp__terminate           100980bc     ucrtd:ucrtbased.dll
 0002:000000c0       __imp__strncpy             100980c0     ucrtd:ucrtbased.dll
 0002:000000c4       __imp__strcpy              100980c4     ucrtd:ucrtbased.dll
 0002:000000c8       __imp__strcmp              100980c8     ucrtd:ucrtbased.dll
 0002:000000cc       __imp__strcat              100980cc     ucrtd:ucrtbased.dll
 0002:000000d0       __imp____stdio_common_vsprintf 100980d0     ucrtd:ucrtbased.dll
 0002:000000d4       __imp__rand                100980d4     ucrtd:ucrtbased.dll
 0002:000000d8       __imp__atan2               100980d8     ucrtd:ucrtbased.dll
 0002:000000dc       __imp___wassert            100980dc     ucrtd:ucrtbased.dll
 0002:000000e0       __imp__sqrt                100980e0     ucrtd:ucrtbased.dll
 0002:000000e4       __imp__fabs                100980e4     ucrtd:ucrtbased.dll
 0002:000000e8       __imp__abs                 100980e8     ucrtd:ucrtbased.dll
 0002:000000ec       __imp__atof                100980ec     ucrtd:ucrtbased.dll
 0002:000000f0       __imp__sin                 100980f0     ucrtd:ucrtbased.dll
 0002:000000f4       __imp__cos                 100980f4     ucrtd:ucrtbased.dll
 0002:000000f8       __imp__floor               100980f8     ucrtd:ucrtbased.dll
 0002:000000fc       \177ucrtbased_NULL_THUNK_DATA 100980fc     ucrtd:ucrtbased.dll
 0002:00000100       ___guard_check_icall_fptr  10098100     MSVCRTD:guard_support.obj
 0002:00000104       ___xc_a                    10098104     MSVCRTD:initializers.obj
 0002:00000108       ___xc_z                    10098108     MSVCRTD:initializers.obj
 0002:0000010c       ___xi_a                    1009810c     MSVCRTD:initializers.obj
 0002:00000110       ___xi_z                    10098110     MSVCRTD:initializers.obj
 0002:00000114       ___xp_a                    10098114     MSVCRTD:initializers.obj
 0002:00000118       ___xp_z                    10098118     MSVCRTD:initializers.obj
 0002:0000011c       ___xt_a                    1009811c     MSVCRTD:initializers.obj
 0002:00000120       ___xt_z                    10098120     MSVCRTD:initializers.obj
 0002:00000130       _bg_weaponStats            10098130     bg_misc.obj
 0002:000002f0       _bg_weaponStatsCount       100982f0     bg_misc.obj
 0002:00000418       __real@0000000000000000    10098418     bg_misc.obj
 0002:00000420       __real@3f50624dd2f1a9fc    10098420     bg_misc.obj
 0002:00000428       __real@3f800000            10098428     bg_misc.obj
 0002:00000430       __real@3fe0000000000000    10098430     bg_misc.obj
 0002:00000438       __real@40000000            10098438     bg_misc.obj
 0002:0000043c       __real@40490fdb            1009843c     bg_misc.obj
 0002:00000440       __real@4079000000000000    10098440     bg_misc.obj
 0002:00000448       __real@41e80000            10098448     bg_misc.obj
 0002:0000044c       __real@42100000            1009844c     bg_misc.obj
 0002:00000450       __real@42800000            10098450     bg_misc.obj
 0002:00000454       __real@44480000            10098454     bg_misc.obj
 0002:00000458       __real@c2100000            10098458     bg_misc.obj
 0002:0000045c       __real@c2480000            1009845c     bg_misc.obj
 0002:000005d8       __real@00000000            100985d8     bg_pmove.obj
 0002:000005dc       __real@3e99999a            100985dc     bg_pmove.obj
 0002:000005e0       __real@3ecccccd            100985e0     bg_pmove.obj
 0002:000005e4       __real@3f000000            100985e4     bg_pmove.obj
 0002:000005e8       __real@3f1a36e2eb1c432d    100985e8     bg_pmove.obj
 0002:000005f0       __real@3f28f5c3            100985f0     bg_pmove.obj
 0002:000005f4       __real@3f333333            100985f4     bg_pmove.obj
 0002:000005f8       __real@3f400000            100985f8     bg_pmove.obj
 0002:00000600       __real@3f50624de0000000    10098600     bg_pmove.obj
 0002:00000608       __real@3f76800000000000    10098608     bg_pmove.obj
 0002:00000610       __real@3f7fbe77            10098610     bg_pmove.obj
 0002:00000614       __real@3f8020c5            10098614     bg_pmove.obj
 0002:00000618       __real@3fd0000000000000    10098618     bg_pmove.obj
 0002:00000620       __real@3ff0000000000000    10098620     bg_pmove.obj
 0002:00000628       __real@3ff4cccccccccccd    10098628     bg_pmove.obj
 0002:00000630       __real@3ff8000000000000    10098630     bg_pmove.obj
 0002:00000638       __real@40400000            10098638     bg_pmove.obj
 0002:00000640       __real@405fc00000000000    10098640     bg_pmove.obj
 0002:00000648       __real@40800000            10098648     bg_pmove.obj
 0002:0000064c       __real@40a00000            1009864c     bg_pmove.obj
 0002:00000650       __real@40e00000            10098650     bg_pmove.obj
 0002:00000654       __real@41200000            10098654     bg_pmove.obj
 0002:00000658       __real@41700000            10098658     bg_pmove.obj
 0002:0000065c       __real@41800000            1009865c     bg_pmove.obj
 0002:00000660       __real@41a00000            10098660     bg_pmove.obj
 0002:00000664       __real@41f00000            10098664     bg_pmove.obj
 0002:00000668       __real@42000000            10098668     bg_pmove.obj
 0002:0000066c       __real@42200000            1009866c     bg_pmove.obj
 0002:00000670       __real@42280000            10098670     bg_pmove.obj
 0002:00000674       __real@42700000            10098674     bg_pmove.obj
 0002:00000678       __real@42c80000            10098678     bg_pmove.obj
 0002:0000067c       __real@42fe0000            1009867c     bg_pmove.obj
 0002:00000680       __real@43480000            10098680     bg_pmove.obj
 0002:00000684       __real@43870000            10098684     bg_pmove.obj
 0002:00000688       __real@43af0000            10098688     bg_pmove.obj
 0002:0000068c       __real@bf800000            1009868c     bg_pmove.obj
 0002:00000690       __real@c1000000            10098690     bg_pmove.obj
 0002:00000694       __real@c1700000            10098694     bg_pmove.obj
 0002:00000698       __real@c1800000            10098698     bg_pmove.obj
 0002:0000069c       __real@c1c00000            1009869c     bg_pmove.obj
 0002:000006a0       __real@c2280000            100986a0     bg_pmove.obj
 0002:000006a4       __real@c3480000            100986a4     bg_pmove.obj
 0002:000006b0       __xmm@80000000800000008000000080000000 100986b0     bg_pmove.obj
 0002:000006c0       __real@3fb999999999999a    100986c0     bg_slidemove.obj
 0002:000006c8       __real@3fefae147ae147ae    100986c8     bg_slidemove.obj
 0002:000006d0       __real@3c8efa35            100986d0     q_math.obj
 0002:000006d4       __real@3fc00000            100986d4     q_math.obj
 0002:000006d8       __real@4000000000000000    100986d8     q_math.obj
 0002:000006e0       __real@400921fb60000000    100986e0     q_math.obj
 0002:000006e8       __real@4066800000000000    100986e8     q_math.obj
 0002:000006f0       __real@4066c16c16c16c17    100986f0     q_math.obj
 0002:000006f8       __real@4076800000000000    100986f8     q_math.obj
 0002:00000700       __real@42b40000            10098700     q_math.obj
 0002:00000704       __real@43340000            10098704     q_math.obj
 0002:00000708       __real@437f0000            10098708     q_math.obj
 0002:0000070c       __real@43b40000            1009870c     q_math.obj
 0002:00000710       __real@47800000            10098710     q_math.obj
 0002:00000714       __real@47c34f80            10098714     q_math.obj
 0002:00000718       __real@c3340000            10098718     q_math.obj
 0002:0000071c       __real@c7c34f80            1009871c     q_math.obj
 0002:00000720       __xmm@80000000000000008000000000000000 10098720     q_math.obj
 0002:0000096c       __real@3d567750            1009896c     ui_shared.obj
 0002:00000970       __real@3f0ccccd            10098970     ui_shared.obj
 0002:00000974       __real@3f4ccccd            10098974     ui_shared.obj
 0002:00000978       __real@3fd126e978d4fdf4    10098978     ui_shared.obj
 0002:00000980       __real@3fe999999999999a    10098980     ui_shared.obj
 0002:00000988       __real@4010000000000000    10098988     ui_shared.obj
 0002:00000990       __real@4018000000000000    10098990     ui_shared.obj
 0002:00000998       __real@4020000000000000    10098998     ui_shared.obj
 0002:000009a0       __real@402e000000000000    100989a0     ui_shared.obj
 0002:000009a8       __real@4030000000000000    100989a8     ui_shared.obj
 0002:000009b0       __real@4040000000000000    100989b0     ui_shared.obj
 0002:000009b8       __real@4058000000000000    100989b8     ui_shared.obj
 0002:000009c0       __real@40c00000            100989c0     ui_shared.obj
 0002:000009c4       __real@41000000            100989c4     ui_shared.obj
 0002:000009c8       __real@41400000            100989c8     ui_shared.obj
 0002:000009cc       __real@41c80000            100989cc     ui_shared.obj
 0002:000009d0       __real@42c00000            100989d0     ui_shared.obj
 0002:000009d4       __real@42cc0000            100989d4     ui_shared.obj
 0002:000009d8       __real@43f00000            100989d8     ui_shared.obj
 0002:000009dc       __real@44200000            100989dc     ui_shared.obj
 0002:000009e0       __real@48000000            100989e0     ui_shared.obj
 0002:000009e8       __real@bfe0000000000000    100989e8     ui_shared.obj
 0002:00000b28       __real@3a83126f            10098b28     cg_draw.obj
 0002:00000b2c       __real@3ba3d70a            10098b2c     cg_draw.obj
 0002:00000b30       __real@3c000000            10098b30     cg_draw.obj
 0002:00000b34       __real@3dcccccd            10098b34     cg_draw.obj
 0002:00000b38       __real@3e19999a            10098b38     cg_draw.obj
 0002:00000b3c       __real@3e3851ec            10098b3c     cg_draw.obj
 0002:00000b40       __real@3e4ccccd            10098b40     cg_draw.obj
 0002:00000b44       __real@3e6147ae            10098b44     cg_draw.obj
 0002:00000b48       __real@3e75c28f            10098b48     cg_draw.obj
 0002:00000b4c       __real@3e800000            10098b4c     cg_draw.obj
 0002:00000b50       __real@3e851eb8            10098b50     cg_draw.obj
 0002:00000b54       __real@3e8f5c29            10098b54     cg_draw.obj
 0002:00000b58       __real@3ea8f5c3            10098b58     cg_draw.obj
 0002:00000b5c       __real@3eb33333            10098b5c     cg_draw.obj
 0002:00000b60       __real@3ee66666            10098b60     cg_draw.obj
 0002:00000b64       __real@3ef5c28f            10098b64     cg_draw.obj
 0002:00000b68       __real@3f028f5c            10098b68     cg_draw.obj
 0002:00000b6c       __real@3f19999a            10098b6c     cg_draw.obj
 0002:00000b70       __real@3f59999a            10098b70     cg_draw.obj
 0002:00000b74       __real@3f666666            10098b74     cg_draw.obj
 0002:00000b78       __real@3f733333            10098b78     cg_draw.obj
 0002:00000b7c       __real@3f8ccccd            10098b7c     cg_draw.obj
 0002:00000b80       __real@3f99999a            10098b80     cg_draw.obj
 0002:00000b88       __real@3fe6666666666666    10098b88     cg_draw.obj
 0002:00000b90       __real@404e000000000000    10098b90     cg_draw.obj
 0002:00000b98       __real@409f400000000000    10098b98     cg_draw.obj
 0002:00000ba0       __real@41100000            10098ba0     cg_draw.obj
 0002:00000ba4       __real@41300000            10098ba4     cg_draw.obj
 0002:00000ba8       __real@41500000            10098ba8     cg_draw.obj
 0002:00000bac       __real@41600000            10098bac     cg_draw.obj
 0002:00000bb0       __real@41900000            10098bb0     cg_draw.obj
 0002:00000bb4       __real@41b00000            10098bb4     cg_draw.obj
 0002:00000bb8       __real@41c00000            10098bb8     cg_draw.obj
 0002:00000bbc       __real@420c0000            10098bbc     cg_draw.obj
 0002:00000bc0       __real@42300000            10098bc0     cg_draw.obj
 0002:00000bc4       __real@42340000            10098bc4     cg_draw.obj
 0002:00000bc8       __real@42400000            10098bc8     cg_draw.obj
 0002:00000bcc       __real@42500000            10098bcc     cg_draw.obj
 0002:00000bd0       __real@425c0000            10098bd0     cg_draw.obj
 0002:00000bd4       __real@42600000            10098bd4     cg_draw.obj
 0002:00000bd8       __real@42840000            10098bd8     cg_draw.obj
 0002:00000bdc       __real@428c0000            10098bdc     cg_draw.obj
 0002:00000be0       __real@42a80000            10098be0     cg_draw.obj
 0002:00000be4       __real@42aa0000            10098be4     cg_draw.obj
 0002:00000be8       __real@42d20000            10098be8     cg_draw.obj
 0002:00000bec       __real@42fa0000            10098bec     cg_draw.obj
 0002:00000bf0       __real@43000000            10098bf0     cg_draw.obj
 0002:00000bf4       __real@43160000            10098bf4     cg_draw.obj
 0002:00000bf8       __real@433e0000            10098bf8     cg_draw.obj
 0002:00000bfc       __real@43460000            10098bfc     cg_draw.obj
 0002:00000c00       __real@43520000            10098c00     cg_draw.obj
 0002:00000c04       __real@435c0000            10098c04     cg_draw.obj
 0002:00000c08       __real@436b0000            10098c08     cg_draw.obj
 0002:00000c0c       __real@43710000            10098c0c     cg_draw.obj
 0002:00000c10       __real@43800000            10098c10     cg_draw.obj
 0002:00000c14       __real@43810000            10098c14     cg_draw.obj
 0002:00000c18       __real@43898000            10098c18     cg_draw.obj
 0002:00000c1c       __real@43960000            10098c1c     cg_draw.obj
 0002:00000c20       __real@439d8000            10098c20     cg_draw.obj
 0002:00000c24       __real@43a00000            10098c24     cg_draw.obj
 0002:00000c28       __real@43a28000            10098c28     cg_draw.obj
 0002:00000c2c       __real@43a50000            10098c2c     cg_draw.obj
 0002:00000c30       __real@43b18000            10098c30     cg_draw.obj
 0002:00000c34       __real@43b68000            10098c34     cg_draw.obj
 0002:00000c38       __real@43b90000            10098c38     cg_draw.obj
 0002:00000c3c       __real@43bb8000            10098c3c     cg_draw.obj
 0002:00000c40       __real@43c00000            10098c40     cg_draw.obj
 0002:00000c44       __real@43c58000            10098c44     cg_draw.obj
 0002:00000c48       __real@43ca8000            10098c48     cg_draw.obj
 0002:00000c4c       __real@43cc0000            10098c4c     cg_draw.obj
 0002:00000c50       __real@43cd0000            10098c50     cg_draw.obj
 0002:00000c54       __real@43d80000            10098c54     cg_draw.obj
 0002:00000c58       __real@44000000            10098c58     cg_draw.obj
 0002:00000c5c       __real@44140000            10098c5c     cg_draw.obj
 0002:00000c60       __real@441ec000            10098c60     cg_draw.obj
 0002:00000c64       __real@441f8000            10098c64     cg_draw.obj
 0002:00000c68       __real@44400000            10098c68     cg_draw.obj
 0002:00000c6c       __real@44610000            10098c6c     cg_draw.obj
 0002:00000c70       __real@44700000            10098c70     cg_draw.obj
 0002:00000c74       __real@447a0000            10098c74     cg_draw.obj
 0002:00000c80       __xmm@41f00000000000000000000000000000 10098c80     cg_draw.obj
 0002:00000c90       __real@3d800000            10098c90     cg_drawtools.obj
 0002:00000c94       __real@3dd80000            10098c94     cg_drawtools.obj
 0002:00000c98       __real@3e100000            10098c98     cg_drawtools.obj
 0002:00000ca0       __real@3fb0000000000000    10098ca0     cg_drawtools.obj
 0002:00000ca8       __real@3fd5c28f5c28f5c2    10098ca8     cg_drawtools.obj
 0002:00000cb0       __real@3fe51eb851eb851f    10098cb0     cg_drawtools.obj
 0002:00000cb8       __real@403e000000000000    10098cb8     cg_drawtools.obj
 0002:00000cc0       __real@4040800000000000    10098cc0     cg_drawtools.obj
 0002:00000cc8       __real@4050000000000000    10098cc8     cg_drawtools.obj
 0002:00000cd0       __real@4069000000000000    10098cd0     cg_drawtools.obj
 0002:00000cd8       __real@41d80000            10098cd8     cg_drawtools.obj
 0002:00000cdc       __real@3f20d97c            10098cdc     cg_effects.obj
 0002:00000ce0       __real@4006000000000000    10098ce0     cg_effects.obj
 0002:00000ce8       __real@4014000000000000    10098ce8     cg_effects.obj
 0002:00000cf0       __real@4016000000000000    10098cf0     cg_effects.obj
 0002:00000cf8       __real@4025000000000000    10098cf8     cg_effects.obj
 0002:00000d00       __real@4035000000000000    10098d00     cg_effects.obj
 0002:00000d08       __real@406f400000000000    10098d08     cg_effects.obj
 0002:00000d10       __real@407f400000000000    10098d10     cg_effects.obj
 0002:00000d18       __real@41d00000            10098d18     cg_effects.obj
 0002:00000d1c       __real@42480000            10098d1c     cg_effects.obj
 0002:00000d20       __real@437a0000            10098d20     cg_effects.obj
 0002:00000d24       __real@43c80000            10098d24     cg_effects.obj
 0002:00000d28       __real@43d48000            10098d28     cg_effects.obj
 0002:00000d2c       __real@43fa0000            10098d2c     cg_effects.obj
 0002:00000d30       __real@443b8000            10098d30     cg_effects.obj
 0002:00000d34       __real@46fffe00            10098d34     cg_effects.obj
 0002:00000d38       __real@c3700000            10098d38     cg_effects.obj
 0002:00000d3c       __real@3727c5ac            10098d3c     cg_ents.obj
 0002:00000d40       __real@3a800000            10098d40     cg_ents.obj
 0002:00000d44       __real@3b800000            10098d44     cg_ents.obj
 0002:00000d48       __real@3ee4f8b588e368f1    10098d48     cg_ents.obj
 0002:00000d50       __real@3f747ae147ae147b    10098d50     cg_ents.obj
 0002:00000d58       __real@4070000000000000    10098d58     cg_ents.obj
 0002:00000d60       __real@40a0000000000000    10098d60     cg_ents.obj
 0002:00000d68       __real@44800000            10098d68     cg_ents.obj
 0002:00000d6c       __real@c4800000            10098d6c     cg_ents.obj
 0002:00000d70       __real@4024000000000000    10098d70     cg_event.obj
 0002:00000dec       __real@42a00000            10098dec     cg_info.obj
 0002:00000df0       __real@43320000            10098df0     cg_info.obj
 0002:00000df4       __real@43920000            10098df4     cg_info.obj
 0002:00000df8       __real@43be0000            10098df8     cg_info.obj
 0002:00000dfc       __real@43df8000            10098dfc     cg_info.obj
 0002:00000e00       __real@43e70000            10098e00     cg_info.obj
 0002:00000e04       __real@441b0000            10098e04     cg_info.obj
 0002:00000e08       __real@44870000            10098e08     cg_info.obj
 0002:00000e0c       __real@44b40000            10098e0c     cg_info.obj
 0002:00000e10       __real@44f00000            10098e10     cg_info.obj
 0002:00000e14       __real@c3c80000            10098e14     cg_info.obj
 0002:00000e18       __real@3fd3333333333333    10098e18     cg_localents.obj
 0002:00000e20       __real@3fd51eb851eb851f    10098e20     cg_localents.obj
 0002:00000e28       __real@3fe6666660000000    10098e28     cg_localents.obj
 0002:00000e30       __real@4034000000000000    10098e30     cg_localents.obj
 0002:00000e38       __real@4045000000000000    10098e38     cg_localents.obj
 0002:00000e40       __real@408f400000000000    10098e40     cg_localents.obj
 0002:00000e48       __real@42900000            10098e48     cg_localents.obj
 0002:00000e4c       __real@42b00000            10098e4c     cg_localents.obj
 0002:00000e50       __real@42dc0000            10098e50     cg_localents.obj
 0002:00000e54       __real@44300000            10098e54     cg_localents.obj
 0002:00000e58       __real@44340000            10098e58     cg_localents.obj
 0002:00000e5c       __real@447f0000            10098e5c     cg_localents.obj
 0002:00000e60       __real@44a50000            10098e60     cg_localents.obj
 0002:00000e64       __real@44dac000            10098e64     cg_localents.obj
 0002:00000e68       __real@44fa0000            10098e68     cg_localents.obj
 0002:00000e6c       __real@c0000000            10098e6c     cg_localents.obj
 0002:00000e70       __real@c024000000000000    10098e70     cg_localents.obj
 0002:00001220       __real@3faaaaab            10099220     cg_main.obj
 0002:00001228       __real@407e000000000000    10099228     cg_main.obj
 0002:00001230       __real@4084000000000000    10099230     cg_main.obj
 0002:00001238       __real@41880000            10099238     cg_main.obj
 0002:0000123c       __real@43ce8000            1009923c     cg_main.obj
 0002:00001240       __real@43e38000            10099240     cg_main.obj
 0002:000013ec       __real@3c23d70a            100993ec     cg_newdraw.obj
 0002:000013f0       __real@3e2e147b            100993f0     cg_newdraw.obj
 0002:000013f4       __real@3f266666            100993f4     cg_newdraw.obj
 0002:000013f8       __real@3ff4000000000000    100993f8     cg_newdraw.obj
 0002:00001400       __real@4056800000000000    10099400     cg_newdraw.obj
 0002:00001408       __real@4084500000000000    10099408     cg_newdraw.obj
 0002:00001410       __real@41e00000            10099410     cg_newdraw.obj
 0002:00001414       __real@c1200000            10099414     cg_newdraw.obj
 0002:00001418       __real@407c200000000000    10099418     cg_marks.obj
 0002:00001420       __real@40a7700000000000    10099420     cg_marks.obj
 0002:00001428       __real@c1a00000            10099428     cg_marks.obj
 0002:00001530       __real@3e91eb85            10099530     cg_particles.obj
 0002:00001534       __real@3ec00000            10099534     cg_particles.obj
 0002:00001538       __real@3f300000            10099538     cg_particles.obj
 0002:0000153c       __real@3f36c8b4            1009953c     cg_particles.obj
 0002:00001540       __real@3f6147ae            10099540     cg_particles.obj
 0002:00001544       __real@3f62d0e5            10099544     cg_particles.obj
 0002:00001548       __real@3f70a3d7            10099548     cg_particles.obj
 0002:0000154c       __real@3f7ff972            1009954c     cg_particles.obj
 0002:00001550       __real@3feccccccccccccd    10099550     cg_particles.obj
 0002:00001558       __real@4049000000000000    10099558     cg_particles.obj
 0002:00001560       __real@4066600000000000    10099560     cg_particles.obj
 0002:00001568       __real@42820000            10099568     cg_particles.obj
 0002:0000156c       __real@45800000            1009956c     cg_particles.obj
 0002:00001570       __real@c2820000            10099570     cg_particles.obj
 0002:00001574       __real@3d4ccccd            10099574     cg_players.obj
 0002:00001578       __real@3ff921fb60000000    10099578     cg_players.obj
 0002:00001580       __real@40c90fdb            10099580     cg_players.obj
 0002:00001584       __real@44bb8000            10099584     cg_players.obj
 0002:00001588       __real@c0800000            10099588     cg_players.obj
 0002:0000158c       __real@c1f00000            1009958c     cg_players.obj
 0002:00001590       __real@c3b40000            10099590     cg_players.obj
 0002:00001598       __real@4044000000000000    10099598     cg_playerstate.obj
 0002:000015a0       __real@406fe00000000000    100995a0     cg_playerstate.obj
 0002:000015a8       __real@bff0000000000000    100995a8     cg_playerstate.obj
 0002:00001618       __real@43300000            10099618     cg_scoreboard.obj
 0002:0000161c       __real@43700000            1009961c     cg_scoreboard.obj
 0002:00001620       __real@43840000            10099620     cg_scoreboard.obj
 0002:00001624       __real@439c0000            10099624     cg_scoreboard.obj
 0002:00001628       __real@43ac0000            10099628     cg_scoreboard.obj
 0002:0000162c       __real@43c40000            1009962c     cg_scoreboard.obj
 0002:00001630       __real@43e80000            10099630     cg_scoreboard.obj
 0002:00001be8       __real@3df5c28f            10099be8     cg_view.obj
 0002:00001bf0       __real@3fd999999999999a    10099bf0     cg_view.obj
 0002:00001bf8       __real@4052c00000000000    10099bf8     cg_view.obj
 0002:00001c00       __real@4075e00000000000    10099c00     cg_view.obj
 0002:00001c08       __real@41f80000            10099c08     cg_view.obj
 0002:00001c0c       __real@43020000            10099c0c     cg_view.obj
 0002:00001c10       __real@430c0000            10099c10     cg_view.obj
 0002:00001c14       __real@43e10000            10099c14     cg_view.obj
 0002:00001c18       __real@c04ca5dc00000000    10099c18     cg_view.obj
 0002:00001c68       __real@3f847ae147ae147b    10099c68     cg_weapons.obj
 0002:00001c70       __real@3fc999999999999a    10099c70     cg_weapons.obj
 0002:00001c78       __real@4054000000000000    10099c78     cg_weapons.obj
 0002:00001c80       __real@4059000000000000    10099c80     cg_weapons.obj
 0002:00001c88       __real@405e000000000000    10099c88     cg_weapons.obj
 0002:00001c90       __real@4062c00000000000    10099c90     cg_weapons.obj
 0002:00001c98       __real@4072c00000000000    10099c98     cg_weapons.obj
 0002:00001ca0       __real@40af400000000000    10099ca0     cg_weapons.obj
 0002:00001ca8       __real@40bf400000000000    10099ca8     cg_weapons.obj
 0002:00001cb0       __real@40c7700000000000    10099cb0     cg_weapons.obj
 0002:00001cb8       __real@427c0000            10099cb8     cg_weapons.obj
 0002:00001cbc       __real@42bc0000            10099cbc     cg_weapons.obj
 0002:00001cc0       __real@441bc000            10099cc0     cg_weapons.obj
 0002:00001cc4       __real@442f0000            10099cc4     cg_weapons.obj
 0002:00001cc8       __real@46000000            10099cc8     cg_weapons.obj
 0002:00001ccc       __real@be4ccccd            10099ccc     cg_weapons.obj
 0002:00001cd0       __real@c0400000            10099cd0     cg_weapons.obj
 0002:00001cd8       __real@c044000000000000    10099cd8     cg_weapons.obj
 0002:00001ce0       __real@c049000000000000    10099ce0     cg_weapons.obj
 0002:00001ce8       __real@c0600000            10099ce8     cg_weapons.obj
 0002:00001cec       __real@c0b00000            10099cec     cg_weapons.obj
 0002:00001cf0       __real@c0c00000            10099cf0     cg_weapons.obj
 0002:00001cf4       __real@c1400000            10099cf4     cg_weapons.obj
 0002:00001cf8       __real@c1980000            10099cf8     cg_weapons.obj
 0002:00001cfc       __real@c2040000            10099cfc     cg_weapons.obj
 0002:00001d08       __pRawDllMain              10099d08     MSVCRTD:dll_dllmain.obj
 0002:00001d08       __pDefaultRawDllMain       10099d08     MSVCRTD:dll_dllmain.obj
 0002:00001d68       __load_config_used         10099d68     MSVCRTD:loadcfg.obj
 0002:00001e10       ___safe_se_handler_table   10099e10     <linker-defined>
 0002:000020c0       ___rtc_iaa                 1009a0c0     MSVCRTD:initsect.obj
 0002:000020c4       ___rtc_izz                 1009a0c4     MSVCRTD:initsect.obj
 0002:000020c8       ___rtc_taa                 1009a0c8     MSVCRTD:initsect.obj
 0002:000020cc       ___rtc_tzz                 1009a0cc     MSVCRTD:initsect.obj
 0002:000021ac       __IMPORT_DESCRIPTOR_VCRUNTIME140D 1009a1ac     vcruntimed:VCRUNTIME140D.dll
 0002:000021c0       __IMPORT_DESCRIPTOR_ucrtbased 1009a1c0     ucrtd:ucrtbased.dll
 0002:000021d4       __IMPORT_DESCRIPTOR_KERNEL32 1009a1d4     kernel32:KERNEL32.dll
 0002:000021e8       __NULL_IMPORT_DESCRIPTOR   1009a1e8     vcruntimed:VCRUNTIME140D.dll
 0003:000000a0       _bg_itemlist               1009b0a0     bg_misc.obj
 0003:00000d04       _bg_numItems               1009bd04     bg_misc.obj
 0003:00002ab0       _eventnames                1009dab0     bg_misc.obj
 0003:00003378       _pm_stopspeed              1009e378     bg_pmove.obj
 0003:0000337c       _pm_duckScale              1009e37c     bg_pmove.obj
 0003:00003380       _pm_swimScale              1009e380     bg_pmove.obj
 0003:00003384       _pm_wadeScale              1009e384     bg_pmove.obj
 0003:00003388       _pm_accelerate             1009e388     bg_pmove.obj
 0003:0000338c       _pm_airaccelerate          1009e38c     bg_pmove.obj
 0003:00003390       _pm_airstepfriction        1009e390     bg_pmove.obj
 0003:00003394       _pm_airsteps               1009e394     bg_pmove.obj
 0003:00003398       _pm_stepHeight             1009e398     bg_pmove.obj
 0003:0000339c       _pm_wateraccelerate        1009e39c     bg_pmove.obj
 0003:000033a0       _pm_flyaccelerate          1009e3a0     bg_pmove.obj
 0003:000033a4       _pm_friction               1009e3a4     bg_pmove.obj
 0003:000033a8       _pm_waterfriction          1009e3a8     bg_pmove.obj
 0003:000033ac       _pm_flightfriction         1009e3ac     bg_pmove.obj
 0003:000033b0       _pm_spectatorfriction      1009e3b0     bg_pmove.obj
 0003:00003490       _bytedirs                  1009e490     q_math.obj
 0003:00003c28       _colorBlack                1009ec28     q_math.obj
 0003:00003c38       _colorRed                  1009ec38     q_math.obj
 0003:00003c48       _colorGreen                1009ec48     q_math.obj
 0003:00003c58       _colorBlue                 1009ec58     q_math.obj
 0003:00003c68       _colorYellow               1009ec68     q_math.obj
 0003:00003c78       _colorMagenta              1009ec78     q_math.obj
 0003:00003c88       _colorCyan                 1009ec88     q_math.obj
 0003:00003c98       _colorWhite                1009ec98     q_math.obj
 0003:00003ca8       _colorLtGrey               1009eca8     q_math.obj
 0003:00003cb8       _colorMdGrey               1009ecb8     q_math.obj
 0003:00003cc8       _colorDkGrey               1009ecc8     q_math.obj
 0003:00003cd8       _g_color_table             1009ecd8     q_math.obj
 0003:00003d58       _axisDefault               1009ed58     q_math.obj
 0003:00004150       _commandList               1009f150     ui_shared.obj
 0003:00004364       _scriptCommandCount        1009f364     ui_shared.obj
 0003:00004638       _itemParseKeywords         1009f638     ui_shared.obj
 0003:00004db8       _menuParseKeywords         1009fdb8     ui_shared.obj
 0003:00008960       _forceModelModificationCount 100a3960     cg_main.obj
 0003:00008964       _forceTeamModelModificationCount 100a3964     cg_main.obj
 0003:00008968       _teamModelModificationCount 100a3968     cg_main.obj
 0003:0000896c       _teamColorsModificationCount 100a396c     cg_main.obj
 0003:00008970       _forceTeamSkinModificationCount 100a3970     cg_main.obj
 0003:00008974       _forceEnemyModelModificationCount 100a3974     cg_main.obj
 0003:00008978       _enemyModelModificationCount 100a3978     cg_main.obj
 0003:0000897c       _enemyColorsModificationCount 100a397c     cg_main.obj
 0003:00008980       _forceEnemySkinModificationCount 100a3980     cg_main.obj
 0003:00008984       _forceTeamWeaponColorModificationCount 100a3984     cg_main.obj
 0003:00008988       _forceEnemyWeaponColorModificationCount 100a3988     cg_main.obj
 0003:0000898c       _teamHeadColorModificationCount 100a398c     cg_main.obj
 0003:00008990       _teamUpperColorModificationCount 100a3990     cg_main.obj
 0003:00008994       _teamLowerColorModificationCount 100a3994     cg_main.obj
 0003:00008998       _enemyHeadColorModificationCount 100a3998     cg_main.obj
 0003:0000899c       _enemyUpperColorModificationCount 100a399c     cg_main.obj
 0003:000089a0       _enemyLowerColorModificationCount 100a39a0     cg_main.obj
 0003:000089a4       _deadBodyDarkenModificationCount 100a39a4     cg_main.obj
 0003:000089a8       _deadBodyColorModificationCount 100a39a8     cg_main.obj
 0003:000089ac       _screenDamageColorModificationCount 100a39ac     cg_main.obj
 0003:000089b0       _screenDamageSelfColorModificationCount 100a39b0     cg_main.obj
 0003:000089b4       _screenDamageTeamColorModificationCount 100a39b4     cg_main.obj
 0003:000089b8       _screenDamageAlphaModificationCount 100a39b8     cg_main.obj
 0003:000089bc       _screenDamageAlphaTeamModificationCount 100a39bc     cg_main.obj
 0003:000089c0       _armorTieredModificationCount 100a39c0     cg_main.obj
 0003:000089c4       _vignetteModificationCount 100a39c4     cg_main.obj
 0003:000089c8       _voiceChatIndicatorModificationCount 100a39c8     cg_main.obj
 0003:000089cc       _simpleItemsHeightOffsetModificationCount 100a39cc     cg_main.obj
 0003:000089d0       _simpleItemsBobModificationCount 100a39d0     cg_main.obj
 0003:000089d4       _simpleItemsRadiusModificationCount 100a39d4     cg_main.obj
 0003:00010660       _drawTeamOverlayModificationCount 100ab660     cg_newdraw.obj
 0003:00011a58       _cg_customSoundNames       100aca58     cg_players.obj
 0003:00012584       _cg_crosshairHitFeedbackValue 100ad584     cg_playerstate.obj
 0003:00015ef0       ___security_cookie_complement 100b0ef0     MSVCRTD:gs_cookie.obj
 0003:00015ef4       ___security_cookie         100b0ef4     MSVCRTD:gs_cookie.obj
 0003:00015ef8       __fltused                  100b0ef8     MSVCRTD:fltused.obj
 0003:00015f00       ___isa_enabled             100b0f00     MSVCRTD:cpu_disp.obj
 0003:00015f04       ___scrt_native_dllmain_reason 100b0f04     MSVCRTD:utility.obj
 0003:00015f08       ___scrt_ucrt_dll_is_in_use 100b0f08     MSVCRTD:ucrt_stubs.obj
 0003:00015f90       _pm_aircontrol             100b0f90     bg_pmove.obj
 0003:00015f94       _pm_airstopaccelerate      100b0f94     bg_pmove.obj
 0003:00015f98       _pm_strafeaccelerate       100b0f98     bg_pmove.obj
 0003:00015f9c       _pm_circlestrafe_friction  100b0f9c     bg_pmove.obj
 0003:00015fa0       _pm_bunnyhop               100b0fa0     bg_pmove.obj
 0003:00015fa4       _pm_autohop                100b0fa4     bg_pmove.obj
 0003:00015fa8       _pm_wishspeed              100b0fa8     bg_pmove.obj
 0003:00015fac       _c_pmove                   100b0fac     bg_pmove.obj
 0003:00015fc0       _vec3_origin               100b0fc0     q_math.obj
 0003:0002c21c       _DC                        100c721c     ui_shared.obj
 0003:0002c220       _menuCount                 100c7220     ui_shared.obj
 0003:0002c224       _openMenuCount             100c7224     ui_shared.obj
 0003:000702a0       _menuScoreboard            1010b2a0     cg_draw.obj
 0003:000702a4       _menuStats                 1010b2a4     cg_draw.obj
 0003:0009d490       ___isa_available           10138490     MSVCRTD:cpu_disp.obj
 0003:0009d494       ___favor                   10138494     MSVCRTD:cpu_disp.obj
 0003:0009d498       ?__type_info_root_node@@3U__type_info_node@@A 10138498     MSVCRTD:tncleanup.obj
 0003:0009d4a0       ?_OptionsStorage@?1??__local_stdio_printf_options@@9@4_KA 101384a0     MSVCRTD:default_local_stdio_options.obj
 0003:0009d4a8       ?_OptionsStorage@?1??__local_stdio_scanf_options@@9@4_KA 101384a8     MSVCRTD:default_local_stdio_options.obj
 0003:0009d4b0       ___scrt_current_native_startup_state 101384b0     MSVCRTD:utility.obj
 0003:0009d4b4       ___scrt_native_startup_lock 101384b4     MSVCRTD:utility.obj
 0003:0009d4d4       ___scrt_debugger_hook_flag 101384d4     MSVCRTD:utility_desktop.obj
 0003:0009d4e0       _voiceChatBuffer           101384e0     <common>
 0003:0009fbe0       _headModelVoiceChat        1013abe0     <common>
 0003:000a0ce0       _voiceChatLists            1013bce0     <common>
 0003:002c9720       _cg_crosshairHitFeedbackTime 10364720     <common>
 0003:002c9724       _cg_freeMarkPolys          10364724     <common>
 0003:002c9740       _cg_activeMarkPolys        10364740     <common>
 0003:002c9860       _cg_markPolys              10364860     <common>
 0003:002db860       _cgDC                      10376860     <common>
 0003:002ed760       _cg_zoomToggle             10388760     <common>
 0003:002ed880       _cg_zoomSensitivity        10388880     <common>
 0003:002ed9a0       _cg_zoomScaling            103889a0     <common>
 0003:002edac0       _cg_zoomOutOnDeath         10388ac0     <common>
 0003:002edbe0       _cg_zoomFov                10388be0     <common>
 0003:002edd00       _cg_weaponPrimaryQueued    10388d00     <common>
 0003:002ede20       _cg_weaponPrimary          10388e20     <common>
 0003:002edf40       _cg_weaponConfig_hmg       10388f40     <common>
 0003:002ee060       _cg_weaponConfig_cg        10389060     <common>
 0003:002ee180       _cg_weaponConfig_pl        10389180     <common>
 0003:002ee2a0       _cg_weaponConfig_ng        103892a0     <common>
 0003:002ee3c0       _cg_weaponConfig_gh        103893c0     <common>
 0003:002ee4e0       _cg_weaponConfig_bfg       103894e0     <common>
 0003:002ee600       _cg_weaponConfig_pg        10389600     <common>
 0003:002ee720       _cg_weaponConfig_rg        10389720     <common>
 0003:002ee840       _cg_weaponConfig_lg        10389840     <common>
 0003:002ee960       _cg_weaponConfig_rl        10389960     <common>
 0003:002eea80       _cg_weaponConfig_gl        10389a80     <common>
 0003:002eeba0       _cg_weaponConfig_sg        10389ba0     <common>
 0003:002eecc0       _cg_weaponConfig_mg        10389cc0     <common>
 0003:002eede0       _cg_weaponConfig_g         10389de0     <common>
 0003:002eef00       _cg_weaponConfig           10389f00     <common>
 0003:002ef020       _cg_weaponColor_grenade    1038a020     <common>
 0003:002ef140       _cg_weaponBar              1038a140     <common>
 0003:002ef260       _cg_waterWarp              1038a260     <common>
 0003:002ef380       _cg_voiceChatIndicator     1038a380     <common>
 0003:002ef4a0       _cg_vignette               1038a4a0     <common>
 0003:002ef5c0       _cg_viewsize               1038a5c0     <common>
 0003:002ef6e0       _cg_useItemWarning         1038a6e0     <common>
 0003:002ef800       _cg_useItemMessage         1038a800     <common>
 0003:002ef920       _cg_trueShotgun            1038a920     <common>
 0003:002efa40       _cg_trueLightning          1038aa40     <common>
 0003:002efb60       _cg_trackPlayer            1038ab60     <common>
 0003:002efc80       _cg_tracerWidth            1038ac80     <common>
 0003:002efda0       _cg_tracerLength           1038ada0     <common>
 0003:002efec0       _cg_tracerChance           1038aec0     <common>
 0003:002effe0       _cg_timescaleFadeSpeed     1038afe0     <common>
 0003:002f0100       _cg_timescaleFadeEnd       1038b100     <common>
 0003:002f0220       _cg_timescale              1038b220     <common>
 0003:002f0340       _cg_thirdPersonRange       1038b340     <common>
 0003:002f0460       _cg_thirdPersonPitch       1038b460     <common>
 0003:002f0580       _cg_thirdPersonAngle       1038b580     <common>
 0003:002f06a0       _cg_thirdPerson            1038b6a0     <common>
 0003:002f07c0       _cg_poiMaxWidth            1038b7c0     <common>
 0003:002f08e0       _cg_poiMinWidth            1038b8e0     <common>
 0003:002f0a00       _cg_powerupPOIs            1038ba00     <common>
 0003:002f0b20       _cg_flagPOIs               1038bb20     <common>
 0003:002f0c40       _cg_teammatePOIsMinWidth   1038bc40     <common>
 0003:002f0d60       _cg_teammatePOIsMaxWidth   1038bd60     <common>
 0003:002f0e80       _cg_teammatePOIs           1038be80     <common>
 0003:002f0fa0       _cg_teammateNames          1038bfa0     <common>
 0003:002f10c0       _cg_drawFriend             1038c0c0     <common>
 0003:002f11e0       _cg_teammateCrosshairNamesOpacity 1038c1e0     <common>
 0003:002f1300       _cg_teammateCrosshairNames 1038c300     <common>
 0003:002f1420       _cg_teamUpperColor         1038c420     <common>
 0003:002f1540       _cg_teamLowerColor         1038c540     <common>
 0003:002f1660       _cg_teamHeadColor          1038c660     <common>
 0003:002f1780       _cg_teamColors             1038c780     <common>
 0003:002f18a0       _cg_teamChatTime           1038c8a0     <common>
 0003:002f19c0       _cg_teamChatsOnly          1038c9c0     <common>
 0003:002f1ae0       _cg_teamChatHeight         1038cae0     <common>
 0003:002f1c00       _cg_teamChatBeep           1038cc00     <common>
 0003:002f1d20       _cg_switchToEmpty          1038cd20     <common>
 0003:002f1e40       _cg_switchOnEmpty          1038ce40     <common>
 0003:002f1f60       _cg_swingSpeed             1038cf60     <common>
 0003:002f2080       _cg_stereoSeparation       1038d080     <common>
 0003:002f21a0       _cg_stats                  1038d1a0     <common>
 0003:002f22c0       _cg_speedometer            1038d2c0     <common>
 0003:002f23e0       _cg_specTeamVitalsHealthColor 1038d3e0     <common>
 0003:002f2500       _cg_specTeamVitals         1038d500     <common>
 0003:002f2620       _cg_specNames              1038d620     <common>
 0003:002f2740       _cg_specItemTimersY        1038d740     <common>
 0003:002f2860       _cg_specItemTimersX        1038d860     <common>
 0003:002f2980       _cg_specItemTimersSize     1038d980     <common>
 0003:002f2aa0       _cg_specItemTimers         1038daa0     <common>
 0003:002f2bc0       _cg_spectating             1038dbc0     <common>
 0003:002f2ce0       _cg_smallFont              1038dce0     <common>
 0003:002f2e00       _cg_singlePlayerActive     1038de00     <common>
 0003:002f2f20       _cg_singlePlayer           1038df20     <common>
 0003:002f3040       _cg_simpleItemsRadius      1038e040     <common>
 0003:002f3160       _cg_simpleItemsHeightOffset 1038e160     <common>
 0003:002f3280       _cg_simpleItemsBob         1038e280     <common>
 0003:002f33a0       _cg_simpleItems            1038e3a0     <common>
 0003:002f34c0       _cg_showmiss               1038e4c0     <common>
 0003:002f35e0       _cg_shadows                1038e5e0     <common>
 0003:002f3700       _cg_selfOnTeamOverlay      1038e700     <common>
 0003:002f3820       _cg_screenDamageAlpha_Team 1038e820     <common>
 0003:002f3940       _cg_screenDamageAlpha      1038e940     <common>
 0003:002f3a60       _cg_screenDamage_Team      1038ea60     <common>
 0003:002f3b80       _cg_screenDamage_Self      1038eb80     <common>
 0003:002f3ca0       _cg_screenDamage           1038eca0     <common>
 0003:002f3dc0       _cg_scorePlum              1038edc0     <common>
 0003:002f3ee0       _cg_oldRocket              1038eee0     <common>
 0003:002f4000       _cg_redTeamName            1038f000     <common>
 0003:002f4120       _cg_recordSPDemoName       1038f120     <common>
 0003:002f4240       _cg_recordSPDemo           1038f240     <common>
 0003:002f4360       _cg_railTrailTime          1038f360     <common>
 0003:002f4480       _cg_railStyle              1038f480     <common>
 0003:002f45a0       _cg_raceBeep               1038f5a0     <common>
 0003:002f46c0       _cg_noProjectileTrail      1038f6c0     <common>
 0003:002f47e0       _cg_projectileNudge        1038f7e0     <common>
 0003:002f4900       _cg_predictLocalRailshots  1038f900     <common>
 0003:002f4a20       _cg_predictItems           1038fa20     <common>
 0003:002f4b40       _pmove_msec                1038fb40     <common>
 0003:002f4c60       _pmove_fixed               1038fc60     <common>
 0003:002f4d80       _cg_smoothClients          1038fd80     <common>
 0003:002f4ea0       _cg_playerCylinders        1038fea0     <common>
 0003:002f4fc0       _cg_oldPlasma              1038ffc0     <common>
 0003:002f50e0       _cg_preferredStartingWeapons 103900e0     <common>
 0003:002f5200       _cg_paused                 10390200     <common>
 0003:002f5320       _cg_overheadNamesWidth     10390320     <common>
 0003:002f5440       _cg_obituaryRowSize        10390440     <common>
 0003:002f5560       _cg_obeliskRespawnDelay    10390560     <common>
 0003:002f5680       _cg_synchronousClients     10390680     <common>
 0003:002f57a0       _cg_nopredict              103907a0     <common>
 0003:002f58c0       _cg_noPlayerAnims          103908c0     <common>
 0003:002f59e0       _cg_muzzleFlash            103909e0     <common>
 0003:002f5b00       _cg_lowAmmoWeaponBarWarning 10390b00     <common>
 0003:002f5c20       _cg_lowAmmoWarningSound    10390c20     <common>
 0003:002f5d40       _cg_lowAmmoWarningPercentile 10390d40     <common>
 0003:002f5e60       _cg_loadout                10390e60     <common>
 0003:002f5f80       _cg_lightningStyle         10390f80     <common>
 0003:002f60a0       _cg_lightningImpactCap     103910a0     <common>
 0003:002f61c0       _cg_lightningImpact        103911c0     <common>
 0003:002f62e0       _cg_levelTimerDirection    103912e0     <common>
 0003:002f6400       _cg_lastmsg                10391400     <common>
 0003:002f6520       _cg_lagometer              10391520     <common>
 0003:002f6640       _cg_kickScale              10391640     <common>
 0003:002f6760       _cg_itemTimers             10391760     <common>
 0003:002f6880       _cg_ignoreMouseInput       10391880     <common>
 0003:002f69a0       _cg_hudFiles               103919a0     <common>
 0003:002f6ac0       _cg_gun_frame              10391ac0     <common>
 0003:002f6be0       _cg_gun_z                  10391be0     <common>
 0003:002f6d00       _cg_gun_y                  10391d00     <common>
 0003:002f6e20       _cg_gun_x                  10391e20     <common>
 0003:002f6f40       _cg_gametype               10391f40     <common>
 0003:002f7060       _cg_gameInfo6              10392060     <common>
 0003:002f7180       _cg_gameInfo5              10392180     <common>
 0003:002f72a0       _cg_gameInfo4              103922a0     <common>
 0003:002f73c0       _cg_gameInfo3              103923c0     <common>
 0003:002f74e0       _cg_gameInfo2              103924e0     <common>
 0003:002f7600       _cg_gameInfo1              10392600     <common>
 0003:002f7720       _cg_fov                    10392720     <common>
 0003:002f7840       _cg_forceTeamWeaponColor   10392840     <common>
 0003:002f7960       _cg_forceTeamSkin          10392960     <common>
 0003:002f7a80       _cg_teamModel              10392a80     <common>
 0003:002f7ba0       _cg_forceTeamModel         10392ba0     <common>
 0003:002f7cc0       _cg_forceEnemyWeaponColor  10392cc0     <common>
 0003:002f7de0       _cg_forceEnemySkin         10392de0     <common>
 0003:002f7f00       _cg_enemyModel             10392f00     <common>
 0003:002f8020       _cg_forceEnemyModel        10393020     <common>
 0003:002f8140       _cg_forceModel             10393140     <common>
 0003:002f8260       _cg_footsteps              10393260     <common>
 0003:002f8380       _cg_followPowerup          10393380     <common>
 0003:002f84a0       _cg_followKiller           103934a0     <common>
 0003:002f85c0       _cg_filter_angles          103935c0     <common>
 0003:002f86e0       _cg_errorDecay             103936e0     <common>
 0003:002f8800       _cg_enemyUpperColor        10393800     <common>
 0003:002f8920       _cg_enemyLowerColor        10393920     <common>
 0003:002f8a40       _cg_enemyHeadColor         10393a40     <common>
 0003:002f8b60       _cg_enemyColors            10393b60     <common>
 0003:002f8c80       _cg_enemyCrosshairNamesOpacity 10393c80     <common>
 0003:002f8da0       _cg_enemyCrosshairNames    10393da0     <common>
 0003:002f8ec0       _cg_drawCrosshairNames     10393ec0     <common>
 0003:002f8fe0       _cg_enableBreath           10393fe0     <common>
 0003:002f9100       _cg_enableDust             10394100     <common>
 0003:002f9220       _cg_drawTieredArmorAvailability 10394220     <common>
 0003:002f9340       _cg_teamOverlayUserinfo    10394340     <common>
 0003:002f9460       _cg_drawTeamOverlayY       10394460     <common>
 0003:002f9580       _cg_drawTeamOverlayX       10394580     <common>
 0003:002f96a0       _cg_drawTeamOverlaySize    103946a0     <common>
 0003:002f97c0       _cg_drawTeamOverlayOpacity 103947c0     <common>
 0003:002f98e0       _cg_drawTeamOverlay        103948e0     <common>
 0003:002f9a00       _cg_drawStatus             10394a00     <common>
 0003:002f9b20       _cg_drawSpriteSelf         10394b20     <common>
 0003:002f9c40       _cg_drawSprites            10394c40     <common>
 0003:002f9d60       _cg_drawSpecMessages       10394d60     <common>
 0003:002f9e80       _cg_drawTimer              10394e80     <common>
 0003:002f9fa0       _cg_drawSnapshot           10394fa0     <common>
 0003:002fa0c0       _cg_drawRewardsRowSize     103950c0     <common>
 0003:002fa1e0       _cg_drawRewards            103951e0     <common>
 0003:002fa300       _cg_drawCheckpointRemaining 10395300     <common>
 0003:002fa420       _cg_drawProfileImages      10395420     <common>
 0003:002fa540       _cg_drawPregameMessages    10395540     <common>
 0003:002fa660       _cg_drawItemPickups        10395660     <common>
 0003:002fa780       _cg_drawInputCmdsY         10395780     <common>
 0003:002fa8a0       _cg_drawInputCmdsX         103958a0     <common>
 0003:002fa9c0       _cg_drawInputCmdsSize      103959c0     <common>
 0003:002faae0       _cg_drawInputCmds          10395ae0     <common>
 0003:002fac00       _cg_drawIcons              10395c00     <common>
 0003:002fad20       _cg_drawHitFriendTime      10395d20     <common>
 0003:002fae40       _cg_drawGun                10395e40     <common>
 0003:002faf60       _cg_drawFullWeaponBar      10395f60     <common>
 0003:002fb080       _cg_drawFragMessages       10396080     <common>
 0003:002fb1a0       _cg_drawFPS                103961a0     <common>
 0003:002fb2c0       _cg_drawDemoHUD            103962c0     <common>
 0003:002fb3e0       _cg_drawDeadFriendTime     103963e0     <common>
 0003:002fb500       _cg_drawCrosshairTeamHealthSize 10396500     <common>
 0003:002fb620       _cg_drawCrosshairTeamHealth 10396620     <common>
 0003:002fb740       _cg_drawCrosshair          10396740     <common>
 0003:002fb860       _cg_drawAttacker           10396860     <common>
 0003:002fb980       _cg_drawAmmoWarning        10396980     <common>
 0003:002fbaa0       _cg_draw3dIcons            10396aa0     <common>
 0003:002fbbc0       _cg_draw2D                 10396bc0     <common>
 0003:002fbce0       _cg_disableLoadout_hmg     10396ce0     <common>
 0003:002fbe00       _cg_disableLoadout_cg      10396e00     <common>
 0003:002fbf20       _cg_disableLoadout_pl      10396f20     <common>
 0003:002fc040       _cg_disableLoadout_ng      10397040     <common>
 0003:002fc160       _cg_disableLoadout_gh      10397160     <common>
 0003:002fc280       _cg_disableLoadout_bfg     10397280     <common>
 0003:002fc3a0       _cg_disableLoadout_pg      103973a0     <common>
 0003:002fc4c0       _cg_disableLoadout_rg      103974c0     <common>
 0003:002fc5e0       _cg_disableLoadout_lg      103975e0     <common>
 0003:002fc700       _cg_disableLoadout_rl      10397700     <common>
 0003:002fc820       _cg_disableLoadout_gl      10397820     <common>
 0003:002fc940       _cg_disableLoadout_sg      10397940     <common>
 0003:002fca60       _cg_disableLoadout_mg      10397a60     <common>
 0003:002fcb80       _cg_disableLoadout_g       10397b80     <common>
 0003:002fcca0       _cg_deferPlayers           10397ca0     <common>
 0003:002fcdc0       _cg_debugOwnerdrawStats    10397dc0     <common>
 0003:002fcee0       _cg_debugPosition          10397ee0     <common>
 0003:002fd000       _cg_debugEvents            10398000     <common>
 0003:002fd120       _cg_debugAnim              10398120     <common>
 0003:002fd240       _cg_deadBodyDarken         10398240     <common>
 0003:002fd360       _cg_deadBodyColor          10398360     <common>
 0003:002fd480       _cg_damagePlumColorStyle   10398480     <common>
 0003:002fd5a0       _cg_damagePlum             103985a0     <common>
 0003:002fd6c0       _cg_currentSelectedPlayerName 103986c0     <common>
 0003:002fd7e0       _cg_currentSelectedPlayer  103987e0     <common>
 0003:002fd900       _cg_crosshairY             10398900     <common>
 0003:002fda20       _cg_crosshairX             10398a20     <common>
 0003:002fdb40       _cg_crosshairSize          10398b40     <common>
 0003:002fdc60       _cg_crosshairPulse         10398c60     <common>
 0003:002fdd80       _cg_crosshairHitTime       10398d80     <common>
 0003:002fdea0       _cg_crosshairHitStyle      10398ea0     <common>
 0003:002fdfc0       _cg_crosshairHitColor      10398fc0     <common>
 0003:002fe0e0       _cg_crosshairHealth        103990e0     <common>
 0003:002fe200       _cg_crosshairColor         10399200     <common>
 0003:002fe320       _cg_crosshairBrightness    10399320     <common>
 0003:002fe440       _cg_showVoiceText          10399440     <common>
 0003:002fe560       _cg_playVoiceChats         10399560     <common>
 0003:002fe680       _cg_chatHistoryLength      10399680     <common>
 0003:002fe7a0       _cg_chatbeep               103997a0     <common>
 0003:002fe8c0       _cg_centertime             103998c0     <common>
 0003:002fe9e0       _cg_cameraThirdPersonSmartMode 103999e0     <common>
 0003:002feb00       _cg_cameraSmartMode        10399b00     <common>
 0003:002fec20       _cg_cameraOrbitDelay       10399c20     <common>
 0003:002fed40       _cg_cameraOrbit            10399d40     <common>
 0003:002fee60       _cg_cameraMode             10399e60     <common>
 0003:002fef80       _cg_buildScript            10399f80     <common>
 0003:002ff0a0       _cg_brassTime              1039a0a0     <common>
 0003:002ff1c0       _cg_runroll                1039a1c0     <common>
 0003:002ff2e0       _cg_runpitch               1039a2e0     <common>
 0003:002ff400       _cg_bobroll                1039a400     <common>
 0003:002ff520       _cg_bobpitch               1039a520     <common>
 0003:002ff640       _cg_bobup                  1039a640     <common>
 0003:002ff760       _cg_bob                    1039a760     <common>
 0003:002ff880       _cg_blueTeamName           1039a880     <common>
 0003:002ff9a0       _cg_blood                  1039a9a0     <common>
 0003:002ffac0       _cg_bigFont                1039aac0     <common>
 0003:002ffbe0       _cg_autoProjectileNudge    1039abe0     <common>
 0003:002ffd00       _cg_autoswitch             1039ad00     <common>
 0003:002ffe20       _cg_autoHop                1039ae20     <common>
 0003:002fff40       _cg_autoAction             1039af40     <common>
 0003:00300060       _cg_announcerRewardsVO     1039b060     <common>
 0003:00300180       _cg_announcer              1039b180     <common>
 0003:003002a0       _cg_animSpeed              1039b2a0     <common>
 0003:003003c0       _cg_noTaunt                1039b3c0     <common>
 0003:003004e0       _cg_allowTaunt             1039b4e0     <common>
 0003:00300600       _cg_addMarks               1039b600     <common>
 0003:00300720       _cg_armorTiered            1039b720     <common>
 0003:00300840       _cg_pmoveSettings          1039b840     <common>
 0003:00300980       _cg_items                  1039b980     <common>
 0003:00302180       _cg_weapons                1039d180     <common>
 0003:00302a00       _cg_entities               1039da00     <common>
 0003:003b8a20       _cg                        10453a20     <common>
 0003:003e1b60       _cgs                       1047cb60     <common>
 0003:0040e698       _cg_freeLocalEntities      104a9698     <common>
 0003:0040e6a0       _cg_activeLocalEntities    104a96a0     <common>
 0003:0040e7e0       _cg_localEntities          104a97e0     <common>
 0003:00433fe0       _cg_gibSphereModel         104cefe0     <common>
 0003:00433fe4       _cg_deathEffectShader      104cefe4     <common>
 0003:00434000       _lagometer                 104cf000     <common>
 0003:00434620       _teamChat2                 104cf620     <common>
 0003:00434720       _teamChat1                 104cf720     <common>
 0003:00434820       _systemChat                104cf820     <common>
 0003:00434920       _numSortedTeamPlayers      104cf920     <common>
 0003:00434940       _sortedTeamPlayers         104cf940     <common>
 0003:004349c0       _menuStack                 104cf9c0     <common>
 0003:00434a00       _Menus                     104cfa00     <common>
 0003:00479100       _menuParseKeywordHash      10514100     <common>
 0003:00479900       _itemParseKeywordHash      10514900     <common>
 0003:0047a100       _g_nameBind2               10515100     <common>
 0003:0047a120       _g_nameBind1               10515120     <common>
 0003:0047a140       ?_OptionsStorage@?1??__local_stdio_printf_options@@9@9 10515140     <common>
 0003:0047a160       _pml                       10515160     <common>
 0003:0047a1f4       _pm                        105151f4     <common>
 0003:0047a1f8       ___dyn_tls_init_callback   105151f8     <common>

 entry point at        0001:00095720

 Static symbols

 0000:ffadb000       .debug$S                   10000000     ucrtd:ucrtbased.dll
 0000:ffadb000       .debug$S                   10000000     vcruntimed:VCRUNTIME140D.dll
 0000:ffadb000       .debug$S                   10000000     vcruntimed:VCRUNTIME140D.dll
 0000:ffadb000       .debug$S                   10000000     vcruntimed:VCRUNTIME140D.dll
 0000:ffadb000       .debug$S                   10000000     vcruntimed:VCRUNTIME140D.dll
 0000:ffadb000       .debug$S                   10000000     vcruntimed:VCRUNTIME140D.dll
 0002:fff68000       __guard_fids_?dllmain_dispatch@@YAHQAUHINSTANCE__@@KQAX@Z 10000000     MSVCRTD:dll_dllmain.obj
 0000:ffadb000       .debug$S                   10000000     cgamex86.exp
 0002:fff68000       __guard_fids____scrt_set_unhandled_exception_filter 10000000     MSVCRTD:utility_desktop.obj
 0002:fff68000       __guard_fids___except_handler4 10000000     MSVCRTD:chandler4gs.obj
 0000:ffadb000       .debug$S                   10000000     kernel32:KERNEL32.dll
 0000:ffadb000       .debug$S                   10000000     kernel32:KERNEL32.dll
 0000:ffadb000       .debug$S                   10000000     kernel32:KERNEL32.dll
 0000:ffadb000       .debug$S                   10000000     kernel32:KERNEL32.dll
 0000:ffadb000       .debug$S                   10000000     kernel32:KERNEL32.dll
 0000:ffadb000       .debug$S                   10000000     kernel32:KERNEL32.dll
 0000:ffadb000       .debug$S                   10000000     kernel32:KERNEL32.dll
 0000:ffadb000       .debug$S                   10000000     kernel32:KERNEL32.dll
 0000:ffadb000       .debug$S                   10000000     kernel32:KERNEL32.dll
 0000:ffadb000       .debug$S                   10000000     kernel32:KERNEL32.dll
 0000:ffadb000       .debug$S                   10000000     kernel32:KERNEL32.dll
 0000:ffadb000       .debug$S                   10000000     kernel32:KERNEL32.dll
 0000:ffadb000       .debug$S                   10000000     kernel32:KERNEL32.dll
 0000:ffadb000       .debug$S                   10000000     kernel32:KERNEL32.dll
 0002:fff68000       __guard_fids__             10000000     MSVCRTD:guard_support.obj
 0000:ffadb000       .debug$S                   10000000     ucrtd:ucrtbased.dll
 0000:ffadb000       .debug$S                   10000000     ucrtd:ucrtbased.dll
 0000:ffadb000       .debug$S                   10000000     ucrtd:ucrtbased.dll
 0000:ffadb000       .debug$S                   10000000     ucrtd:ucrtbased.dll
 0000:ffadb000       .debug$S                   10000000     ucrtd:ucrtbased.dll
 0000:ffadb000       .debug$S                   10000000     ucrtd:ucrtbased.dll
 0000:ffadb000       .debug$S                   10000000     ucrtd:ucrtbased.dll
 0000:ffadb000       .debug$S                   10000000     ucrtd:ucrtbased.dll
 0000:ffadb000       .debug$S                   10000000     ucrtd:ucrtbased.dll
 0000:ffadb000       .debug$S                   10000000     ucrtd:ucrtbased.dll
 0000:ffadb000       .debug$S                   10000000     ucrtd:ucrtbased.dll
 0000:ffadb000       .debug$S                   10000000     vcruntimed:VCRUNTIME140D.dll
 0000:ffadb000       .debug$S                   10000000     ucrtd:ucrtbased.dll
 0000:ffadb000       .debug$S                   10000000     ucrtd:ucrtbased.dll
 0000:ffadb000       .debug$S                   10000000     ucrtd:ucrtbased.dll
 0000:ffadb000       .debug$S                   10000000     ucrtd:ucrtbased.dll
 0000:ffadb000       .debug$S                   10000000     ucrtd:ucrtbased.dll
 0000:ffadb000       .debug$S                   10000000     ucrtd:ucrtbased.dll
 0000:ffadb000       .debug$S                   10000000     ucrtd:ucrtbased.dll
 0000:ffadb000       .debug$S                   10000000     ucrtd:ucrtbased.dll
 0000:ffadb000       .debug$S                   10000000     ucrtd:ucrtbased.dll
 0000:ffadb000       .debug$S                   10000000     ucrtd:ucrtbased.dll
 0000:ffadb000       .debug$S                   10000000     ucrtd:ucrtbased.dll
 0000:ffadb000       .debug$S                   10000000     ucrtd:ucrtbased.dll
 0000:ffadb000       .debug$S                   10000000     ucrtd:ucrtbased.dll
 0000:ffadb000       .debug$S                   10000000     ucrtd:ucrtbased.dll
 0000:ffadb000       .debug$S                   10000000     ucrtd:ucrtbased.dll
 0000:ffadb000       .debug$S                   10000000     ucrtd:ucrtbased.dll
 0000:ffadb000       .debug$S                   10000000     ucrtd:ucrtbased.dll
 0000:ffadb000       .debug$S                   10000000     ucrtd:ucrtbased.dll
 0000:ffadb000       .debug$S                   10000000     ucrtd:ucrtbased.dll
 0000:ffadb000       .debug$S                   10000000     ucrtd:ucrtbased.dll
 0000:ffadb000       .debug$S                   10000000     ucrtd:ucrtbased.dll
 0000:ffadb000       .debug$S                   10000000     ucrtd:ucrtbased.dll
 0000:ffadb000       .debug$S                   10000000     ucrtd:ucrtbased.dll
 0000:ffadb000       .debug$S                   10000000     ucrtd:ucrtbased.dll
 0000:ffadb000       .debug$S                   10000000     ucrtd:ucrtbased.dll
 0000:ffadb000       .debug$S                   10000000     ucrtd:ucrtbased.dll
 0000:ffadb000       .debug$S                   10000000     ucrtd:ucrtbased.dll
 0002:fff68000       __guard_fids___guard_icall_checks_enforced 10000000     MSVCRTD:guard_support.obj
 0000:ffadb000       .debug$S                   10000000     vcruntimed:VCRUNTIME140D.dll
 0000:ffadb000       .debug$S                   10000000     vcruntimed:VCRUNTIME140D.dll
 0001:000000ec       $LN13                      100010ec     bg_misc.obj
 0001:000010b8       $LN94                      100020b8     bg_misc.obj
 0001:000010dc       $LN95                      100020dc     bg_misc.obj
 0001:0000157c       $LN13                      1000257c     bg_misc.obj
 0001:000018a0       $LN12                      100028a0     bg_misc.obj
 0001:00002090       _BG_IsTeamFlagItem         10003090 f   bg_misc.obj
 0001:000020e0       _BG_IsDroppedItem          100030e0 f   bg_misc.obj
 0001:00002110       _BG_IsArmorTieredModeEnabled 10003110 f   bg_misc.obj
 0001:00002140       _BG_CanGrabWeaponItem      10003140 f   bg_misc.obj
 0001:000021e0       _BG_CanGrabArmorItem       100031e0 f   bg_misc.obj
 0001:00002390       _BG_CanGrabHealthItem      10003390 f   bg_misc.obj
 0001:00002400       _VectorLength              10003400 f   bg_pmove.obj
 0001:000029f0       _PM_EvaluateJumpVelocityScale 100039f0 f   bg_pmove.obj
 0001:00002af0       _PM_LoadMoveSettings       10003af0 f   bg_pmove.obj
 0001:00002ba0       _PM_FloatMatchesValue      10003ba0 f   bg_pmove.obj
 0001:00002bf0       _PM_LoadMoveTuningFloat    10003bf0 f   bg_pmove.obj
 0001:00002c90       _PM_LoadMoveTuningInt      10003c90 f   bg_pmove.obj
 0001:00002cd0       _PM_GetDefaultWeaponReloadTime 10003cd0 f   bg_pmove.obj
 0001:00002cf0       _PM_GetWeaponReloadTime    10003cf0 f   bg_pmove.obj
 0001:00002d50       _PM_ShouldRequireJumpRelease 10003d50 f   bg_pmove.obj
 0001:00002dc0       _PM_CheckJump              10003dc0 f   bg_pmove.obj
 0001:00002df0       _PM_PrepareJumpTakeoff     10003df0 f   bg_pmove.obj
 0001:00003060       _PM_ApplyJumpTakeoff       10004060 f   bg_pmove.obj
 0001:00003270       _PM_LoadMoveTuningConstants 10004270 f   bg_pmove.obj
 0001:00003540       _PM_StartTorsoAnim         10004540 f   bg_pmove.obj
 0001:00003580       _PM_StartLegsAnim          10004580 f   bg_pmove.obj
 0001:000035d0       _PM_ContinueLegsAnim       100045d0 f   bg_pmove.obj
 0001:00003610       _PM_ContinueTorsoAnim      10004610 f   bg_pmove.obj
 0001:00003650       _PM_ForceLegsAnim          10004650 f   bg_pmove.obj
 0001:00003680       _PM_Friction               10004680 f   bg_pmove.obj
 0001:00003a20       _PM_Accelerate             10004a20 f   bg_pmove.obj
 0001:00003b40       _PM_AirControl             10004b40 f   bg_pmove.obj
 0001:00003d30       _PM_CmdScale               10004d30 f   bg_pmove.obj
 0001:00003e30       _PM_BuildWishMove3D        10004e30 f   bg_pmove.obj
 0001:00003fd0       _PM_SetMovementDir         10004fd0 f   bg_pmove.obj
 0001:000041d0       _PM_ApplyJumpPlanarVelocity 100051d0 f   bg_pmove.obj
 0001:00004420       _PM_CheckWaterJump         10005420 f   bg_pmove.obj
 0001:00004700       _PM_WaterJumpMove          10005700 f   bg_pmove.obj
 0001:000047a0       _PM_WaterMove              100057a0 f   bg_pmove.obj
 0001:00004a20       _PM_CheckLadder            10005a20 f   bg_pmove.obj
 0001:00004bc0       _PM_LadderMove             10005bc0 f   bg_pmove.obj
 0001:00004f40       _PM_HasHeldInvulnerabilityItem 10005f40 f   bg_pmove.obj
 0001:00004fe0       _PM_ShouldUseInvulnerabilityMove 10005fe0 f   bg_pmove.obj
 0001:00005040       _PM_InvulnerabilityMove    10006040 f   bg_pmove.obj
 0001:00005210       _PM_FlyMove                10006210 f   bg_pmove.obj
 0001:00005430       _PM_AirMove                10006430 f   bg_pmove.obj
 0001:00005780       _PM_GrappleMove            10006780 f   bg_pmove.obj
 0001:00005b40       _PM_WalkMove               10006b40 f   bg_pmove.obj
 0001:00006160       _PM_DeadMove               10007160 f   bg_pmove.obj
 0001:000062b0       _PM_NoclipMove             100072b0 f   bg_pmove.obj
 0001:000065c0       _PM_FootstepForSurface     100075c0 f   bg_pmove.obj
 0001:000065f0       _PM_CrashLand              100075f0 f   bg_pmove.obj
 0001:00006890       _PM_CorrectAllSolid        10007890 f   bg_pmove.obj
 0001:00006bd0       _PM_RecordGroundContact    10007bd0 f   bg_pmove.obj
 0001:00006d20       _PM_GroundTraceMissed      10007d20 f   bg_pmove.obj
 0001:00006f50       _PM_GroundTrace            10007f50 f   bg_pmove.obj
 0001:00007400       _PM_SetWaterLevel          10008400 f   bg_pmove.obj
 0001:00007600       _PM_UpdateCrouchSlideState 10008600 f   bg_pmove.obj
 0001:00007720       _PM_CheckDuck              10008720 f   bg_pmove.obj
 0001:00007be0       _PM_Footsteps              10008be0 f   bg_pmove.obj
 0001:00007eb0       _PM_WaterEvents            10008eb0 f   bg_pmove.obj
 0001:00007f40       _PM_BeginWeaponChange      10008f40 f   bg_pmove.obj
 0001:00008000       _PM_FinishWeaponChange     10009000 f   bg_pmove.obj
 0001:000080d0       _PM_TorsoAnimation         100090d0 f   bg_pmove.obj
 0001:00008110       _PM_Weapon                 10009110 f   bg_pmove.obj
 0001:00008590       _PM_Animate                10009590 f   bg_pmove.obj
 0001:00008760       _PM_DropTimers             10009760 f   bg_pmove.obj
 0001:00009000       _CrossProduct              1000a000 f   bg_slidemove.obj
 0001:0000a080       _PM_CanProbeStepJump       1000b080 f   bg_slidemove.obj
 0001:0000a0e0       _PM_ShouldRequireStepJumpRelease 1000b0e0 f   bg_slidemove.obj
 0001:0000a120       _PM_HasRecentGroundContact 1000b120 f   bg_slidemove.obj
 0001:0000a1f0       _PM_CanStepJump            1000b1f0 f   bg_slidemove.obj
 0001:0000a290       _PM_CanCrouchStepJump      1000b290 f   bg_slidemove.obj
 0001:0000a370       _PM_CanPerformCrouchStepJump 1000b370 f   bg_slidemove.obj
 0001:0000a5d0       _PM_StepSlideMoveWithStepHeight 1000b5d0 f   bg_slidemove.obj
 0001:0000bc60       _VectorLength              1000cc60 f   q_math.obj
 0001:0000bcf0       _CrossProduct              1000ccf0 f   q_math.obj
 0001:0000fe30       _SkipWhitespace            10010e30 f   q_shared.obj
 0001:00010aec       $LN51                      10011aec     ui_shared.obj
 0001:00010b0c       $LN50                      10011b0c     ui_shared.obj
 0001:00012fd0       _Menu_OverActiveItem       10013fd0 f   ui_shared.obj
 0001:00013120       _Item_UpdateAdvertShader   10014120 f   ui_shared.obj
 0001:000132c0       _Menu_SetupAdvertCellShaders 100142c0 f   ui_shared.obj
 0001:00013310       _Menu_RefreshAdvertCellShaders 10014310 f   ui_shared.obj
 0001:00013360       _hashForString             10014360 f   ui_shared.obj
 0001:00013eb0       _UI_ResolveWidescreenMode  10014eb0 f   ui_shared.obj
 0001:00013ef0       _UI_ApplyWidescreenRect    10014ef0 f   ui_shared.obj
 0001:000147c0       _UI_IsNumericValue         100157c0 f   ui_shared.obj
 0001:00014840       _UI_FormatBoundCvarValue   10015840 f   ui_shared.obj
 0001:00014930       _Item_GetTextSource        10015930 f   ui_shared.obj
 0001:000149d0       _UI_SetItemCvarValue       100159d0 f   ui_shared.obj
 0001:00014a40       _UI_PresetValueMatchesCvar 10015a40 f   ui_shared.obj
 0001:00014b20       _Menu_UpdatePresetLists    10015b20 f   ui_shared.obj
 0001:00015000       _Menu_RunCloseScript       10016000 f   ui_shared.obj
 0001:00015250       _Script_Toggle             10016250 f   ui_shared.obj
 0001:000158d0       _Script_ActivateAdvert     100168d0 f   ui_shared.obj
 0001:00015990       _Script_PlayLauncherCinematic 10016990 f   ui_shared.obj
 0001:00015a70       _Script_StopRefresh        10016a70 f   ui_shared.obj
 0001:00015a80       _Script_CloseInGame        10016a80 f   ui_shared.obj
 0001:00015a90       _Script_Leave              10016a90 f   ui_shared.obj
 0001:00015aa0       _Item_HasCvarFlags         10016aa0 f   ui_shared.obj
 0001:00015af0       _Item_EnableShowViaCvarSlot 10016af0 f   ui_shared.obj
 0001:000186a0       _Scroll_ListBox_AutoFunc   100196a0 f   ui_shared.obj
 0001:00018740       _Scroll_ListBox_ThumbFunc  10019740 f   ui_shared.obj
 0001:00018a80       _Scroll_Slider_ThumbFunc   10019a80 f   ui_shared.obj
 0001:00018dc0       $LN14                      10019dc0     ui_shared.obj
 0001:00018dcc       $LN13                      10019dcc     ui_shared.obj
 0001:00019184       $LN23                      1001a184     ui_shared.obj
 0001:00019200       _Window_CloseCinematic     1001a200 f   ui_shared.obj
 0001:00019240       _Menu_CloseCinematics      1001a240 f   ui_shared.obj
 0001:000192d0       _Display_CloseCinematics   1001a2d0 f   ui_shared.obj
 0001:000194d0       _Item_CorrectedTextRect    1001a4d0 f   ui_shared.obj
 0001:000195e0       _Item_TextWidth            1001a5e0 f   ui_shared.obj
 0001:00019660       _Item_TextHeight           1001a660 f   ui_shared.obj
 0001:000196e0       _Item_DrawText             1001a6e0 f   ui_shared.obj
 0001:000197c0       _Item_DrawTextWithCursor   1001a7c0 f   ui_shared.obj
 0001:0001b3b0       _Controls_GetKeyAssignment 1001c3b0 f   ui_shared.obj
 0001:0001d8c8       $LN64                      1001e8c8     ui_shared.obj
 0001:0001e960       _ItemParse_cvarTestSlot    1001f960 f   ui_shared.obj
 0001:0001f3e0       _ItemParse_enableCvarSlot  100203e0 f   ui_shared.obj
 0001:0001f4b0       _Parse_showCvar2_or_hideCvar2 100204b0 f   ui_shared.obj
 0001:0001f4d0       _Parse_showCvar3_or_hideCvar3 100204d0 f   ui_shared.obj
 0001:0001f4f0       _Parse_showCvar4_or_hideCvar4 100204f0 f   ui_shared.obj
 0001:00020200       _Window_CacheContents      10021200 f   ui_shared.obj
 0001:00020270       _Item_CacheContents        10021270 f   ui_shared.obj
 0001:00020290       _Menu_CacheContents        10021290 f   ui_shared.obj
 0001:00020750       _CG_SizeUp_f               10021750 f   cg_consolecmds.obj
 0001:00020780       _CG_SizeDown_f             10021780 f   cg_consolecmds.obj
 0001:000207b0       _CG_Viewpos_f              100217b0 f   cg_consolecmds.obj
 0001:00020810       _CG_ScoresUp_f             10021810 f   cg_consolecmds.obj
 0001:00020840       _CG_AccDown_f              10021840 f   cg_consolecmds.obj
 0001:000208b0       _CG_AccUp_f                100218b0 f   cg_consolecmds.obj
 0001:000208d0       _CG_PStatsDown_f           100218d0 f   cg_consolecmds.obj
 0001:00020940       _CG_PStatsUp_f             10021940 f   cg_consolecmds.obj
 0001:00020960       _CG_LoadHud_f              10021960 f   cg_consolecmds.obj
 0001:00020970       _CG_scrollScoresDown_f     10021970 f   cg_consolecmds.obj
 0001:000209c0       _CG_scrollScoresUp_f       100219c0 f   cg_consolecmds.obj
 0001:00020a10       _CG_spWin_f                10021a10 f   cg_consolecmds.obj
 0001:00020aa0       _CG_spLose_f               10021aa0 f   cg_consolecmds.obj
 0001:00020b30       _CG_TellTarget_f           10021b30 f   cg_consolecmds.obj
 0001:00020bc0       _CG_TellAttacker_f         10021bc0 f   cg_consolecmds.obj
 0001:00020c50       _CG_VoiceTellTarget_f      10021c50 f   cg_consolecmds.obj
 0001:00020ce0       _CG_VoiceTellAttacker_f    10021ce0 f   cg_consolecmds.obj
 0001:00020d70       _CG_NextTeamMember_f       10021d70 f   cg_consolecmds.obj
 0001:00020da0       _CG_PrevTeamMember_f       10021da0 f   cg_consolecmds.obj
 0001:00020dd0       _CG_ClientMute_f           10021dd0 f   cg_consolecmds.obj
 0001:00020e60       _CG_IsInstaGibMode         10021e60 f   cg_consolecmds.obj
 0001:00020e90       _CG_DropFlag_f             10021e90 f   cg_consolecmds.obj
 0001:00020ed0       _CG_DropPowerup_f          10021ed0 f   cg_consolecmds.obj
 0001:00020f50       _CG_DropRune_f             10021f50 f   cg_consolecmds.obj
 0001:00020f80       _CG_DropWeapon_f           10021f80 f   cg_consolecmds.obj
 0001:00021000       _CG_Forfeit_f              10022000 f   cg_consolecmds.obj
 0001:00021050       _CG_RageQuit_f             10022050 f   cg_consolecmds.obj
 0001:00021070       _CG_Kill_f                 10022070 f   cg_consolecmds.obj
 0001:00021090       _CG_IsRetailReadyUpPregameBypassActive 10022090 f   cg_consolecmds.obj
 0001:00021170       _CG_ReadyUp_f              10022170 f   cg_consolecmds.obj
 0001:000211e0       _CG_ClearRetailCommandCaptureState 100221e0 f   cg_consolecmds.obj
 0001:00021230       _CG_Team_f                 10022230 f   cg_consolecmds.obj
 0001:000212a0       _CG_ColorCommandCharToPaletteIndex 100222a0 f   cg_consolecmds.obj
 0001:000212e0       _CG_FormatRetailCommandColor 100222e0 f   cg_consolecmds.obj
 0001:00021320       _CG_ApplyCommandColorString 10022320 f   cg_consolecmds.obj
 0001:00021480       _CG_SetColorCommand_f      10022480 f   cg_consolecmds.obj
 0001:000215d0       _CG_SetTeamColor_f         100225d0 f   cg_consolecmds.obj
 0001:000215e0       _CG_SetEnemyColor_f        100225e0 f   cg_consolecmds.obj
 0001:000215f0       _CG_ChatDown_f             100225f0 f   cg_consolecmds.obj
 0001:00021600       _CG_ChatUp_f               10022600 f   cg_consolecmds.obj
 0001:00021610       _CG_ToggleChatHistory_f    10022610 f   cg_consolecmds.obj
 0001:00021640       _CG_Print_f                10022640 f   cg_consolecmds.obj
 0001:00021740       _CG_IsSpectatorInput       10022740 f   cg_consolecmds.obj
 0001:000217a0       _CG_NextOrder_f            100227a0 f   cg_consolecmds.obj
 0001:00021880       _CG_ConfirmOrder_f         10022880 f   cg_consolecmds.obj
 0001:00021900       _CG_DenyOrder_f            10022900 f   cg_consolecmds.obj
 0001:00021960       _CG_TaskOffense_f          10022960 f   cg_consolecmds.obj
 0001:000219d0       _CG_TaskDefense_f          100229d0 f   cg_consolecmds.obj
 0001:00021a10       _CG_TaskPatrol_f           10022a10 f   cg_consolecmds.obj
 0001:00021a50       _CG_TaskCamp_f             10022a50 f   cg_consolecmds.obj
 0001:00021a90       _CG_TaskFollow_f           10022a90 f   cg_consolecmds.obj
 0001:00021ad0       _CG_TaskRetrieve_f         10022ad0 f   cg_consolecmds.obj
 0001:00021b10       _CG_TaskEscort_f           10022b10 f   cg_consolecmds.obj
 0001:00021b50       _CG_TaskOwnFlag_f          10022b50 f   cg_consolecmds.obj
 0001:00021b70       _CG_TauntKillInsult_f      10022b70 f   cg_consolecmds.obj
 0001:00021b90       _CG_TauntPraise_f          10022b90 f   cg_consolecmds.obj
 0001:00021bb0       _CG_TauntTaunt_f           10022bb0 f   cg_consolecmds.obj
 0001:00021bd0       _CG_TauntDeathInsult_f     10022bd0 f   cg_consolecmds.obj
 0001:00021bf0       _CG_TauntGauntlet_f        10022bf0 f   cg_consolecmds.obj
 0001:00021c10       _CG_TaskSuicide_f          10022c10 f   cg_consolecmds.obj
 0001:00021c80       _CG_StartOrbit_f           10022c80 f   cg_consolecmds.obj
 0001:00021d80       _VectorLength              10022d80 f   cg_draw.obj
 0001:00021e10       _Distance                  10022e10 f   cg_draw.obj
 0001:00023200       $LN30                      10024200     cg_draw.obj
 0001:00024190       _CG_DrawSnapshot           10025190 f   cg_draw.obj
 0001:00024230       _CG_DrawCrosshair          10025230 f   cg_draw.obj
 0001:00024480       _CG_DrawCrosshairNames     10025480 f   cg_draw.obj
 0001:00024680       _CG_SampleLegacySpeedometer 10025680 f   cg_draw.obj
 0001:00024720       _CG_RecordSpeedometerSample 10025720 f   cg_draw.obj
 0001:000247d0       _CG_RegisterInputCmdShaders 100257d0 f   cg_draw.obj
 0001:00024850       _CG_DrawInputCmds          10025850 f   cg_draw.obj
 0001:00024bd0       _CG_IsMenuHudActive        10025bd0 f   cg_draw.obj
 0001:00024be0       _CG_Text_GetExtents        10025be0 f   cg_draw.obj
 0001:00024c40       _CG_Text_PaintNoAdjust     10025c40 f   cg_draw.obj
 0001:00024c90       _CG_WorldCoordToScreenCoord 10025c90 f   cg_draw.obj
 0001:000250d0       _CG_ResetQueuedWorldMarkerDefaults 100260d0 f   cg_draw.obj
 0001:000251b0       _CG_ShouldDrawTeammatePOIs 100261b0 f   cg_draw.obj
 0001:00025230       _CG_GetTeammatePOIArmorColor 10026230 f   cg_draw.obj
 0001:000253e0       _CG_TeammatePOILocation    100263e0 f   cg_draw.obj
 0001:00025440       _CG_TrimTeammatePOILabelToWidth 10026440 f   cg_draw.obj
 0001:00025540       _CG_BuildTeammatePOILabel  10026540 f   cg_draw.obj
 0001:000256b0       _CG_TeammatePOIPowerupIcon 100266b0 f   cg_draw.obj
 0001:00025728       $LN11                      10026728     cg_draw.obj
 0001:00025740       _CG_TeammatePOIIconCount   10026740 f   cg_draw.obj
 0001:000257d0       _CG_DrawTeammatePOIBar     100267d0 f   cg_draw.obj
 0001:00025970       _CG_DrawTeammatePOIIcons   10026970 f   cg_draw.obj
 0001:00025ae0       _CG_DrawTeammatePOIs       10026ae0 f   cg_draw.obj
 0001:000262c0       _CG_DrawRacePoints         100272c0 f   cg_draw.obj
 0001:000265b0       _CG_DrawObituaries         100275b0 f   cg_draw.obj
 0001:00026860       _CG_DrawAttacker           10027860 f   cg_draw.obj
 0001:00026a20       _CG_DrawFPS                10027a20 f   cg_draw.obj
 0001:00026b50       _CG_DrawTeamOverlay        10027b50 f   cg_draw.obj
 0001:000271f0       _CG_GetSpectatorItemPickupMask 100281f0 f   cg_draw.obj
 0001:00027260       _CG_IsSpectatorItemPickupModeActive 10028260 f   cg_draw.obj
 0001:000272d0       _CG_IsSpectatorItemPickupVisible 100282d0 f   cg_draw.obj
 0001:00027360       _CG_GetSpectatorItemPickupPaletteColor 10028360 f   cg_draw.obj
 0001:000274c0       _CG_CompareSpectatorItemPickups 100284c0 f   cg_draw.obj
 0001:000275d0       _CG_DrawSpectatorItemPickups 100285d0 f   cg_draw.obj
 0001:00027950       _CG_DrawUpperRightStack    10028950 f   cg_draw.obj
 0001:000279f0       _CG_DrawUpperRight         100289f0 f   cg_draw.obj
 0001:00027a10       _CG_CountActiveTimedPowerups 10028a10 f   cg_draw.obj
 0001:00027a90       _CG_DrawPowerups           10028a90 f   cg_draw.obj
 0001:00027e70       _CG_DrawSpeedometer        10028e70 f   cg_draw.obj
 0001:00028250       _CG_DrawLowerRight         10029250 f   cg_draw.obj
 0001:000282b0       _CG_FormatPickupTimestamp  100292b0 f   cg_draw.obj
 0001:00028330       _CG_DrawPickupItem         10029330 f   cg_draw.obj
 0001:00028580       _CG_DrawLowerLeft          10029580 f   cg_draw.obj
 0001:000285a0       _CG_GetTeamInfoArmorColor  100295a0 f   cg_draw.obj
 0001:00028750       _CG_TeamInfoBarFraction    10029750 f   cg_draw.obj
 0001:000287a0       _CG_DrawTeamInfoBar        100297a0 f   cg_draw.obj
 0001:000288f0       _CG_TeamInfoLocation       100298f0 f   cg_draw.obj
 0001:00028950       _CG_TeamInfoCarryIcon      10029950 f   cg_draw.obj
 0001:000289b0       _CG_HasActiveTeamScoreRows 100299b0 f   cg_draw.obj
 0001:00028a30       _CG_ShouldDrawTeamInfo     10029a30 f   cg_draw.obj
 0001:00028a70       _CG_DrawTeamInfoRow        10029a70 f   cg_draw.obj
 0001:00029210       _CG_DrawTeamInfo           1002a210 f   cg_draw.obj
 0001:000293c0       _CG_DrawReward             1002a3c0 f   cg_draw.obj
 0001:000296f0       _CG_DrawDisconnect         1002a6f0 f   cg_draw.obj
 0001:00029800       _CG_DrawLagometer          1002a800 f   cg_draw.obj
 0001:00029d60       _CG_DrawCenterString       1002ad60 f   cg_draw.obj
 0001:0002a000       _CG_DrawScreenVignette     1002b000 f   cg_draw.obj
 0001:0002a080       _CG_ApplyCrosshairHitFeedback 1002b080 f   cg_draw.obj
 0001:0002a3ac       $LN28                      1002b3ac     cg_draw.obj
 0001:0002a3d0       _CG_ScanForCrosshairEntity 1002b3d0 f   cg_draw.obj
 0001:0002a580       _CG_ShouldDrawCrosshairTeamVitals 1002b580 f   cg_draw.obj
 0001:0002a610       _CG_GetCrosshairTeamVitalColor 1002b610 f   cg_draw.obj
 0001:0002a700       _CG_DrawCrosshairTeamVitals 1002b700 f   cg_draw.obj
 0001:0002aa90       _CG_ShouldRenderCrosshairName 1002ba90 f   cg_draw.obj
 0001:0002abd0       _CG_DrawCachedOverlayMenu  1002bbd0 f   cg_draw.obj
 0001:0002ac10       _CG_DrawSpectatorFallback  1002bc10 f   cg_draw.obj
 0001:0002aca0       _CG_DrawSpectator          1002bca0 f   cg_draw.obj
 0001:0002adf0       _CG_DrawVote               1002bdf0 f   cg_draw.obj
 0001:0002aec0       _CG_DrawTeamVote           1002bec0 f   cg_draw.obj
 0001:0002afc0       _CG_GetGametypeScoreboardName 1002bfc0 f   cg_draw.obj
 0001:0002b050       $LN20                      1002c050     cg_draw.obj
 0001:0002b090       _CG_DrawScoreboard         1002c090 f   cg_draw.obj
 0001:0002b2b0       _CG_DrawActiveScoreboard   1002c2b0 f   cg_draw.obj
 0001:0002b380       _CG_DrawIntermission       1002c380 f   cg_draw.obj
 0001:0002b3a0       _CG_DrawFollow             1002c3a0 f   cg_draw.obj
 0001:0002b4c0       _CG_DrawAmmoWarning        1002c4c0 f   cg_draw.obj
 0001:0002b5b0       _CG_DrawProxWarning        1002c5b0 f   cg_draw.obj
 0001:0002b6d0       _CG_GetBindKeyName         1002c6d0 f   cg_draw.obj
 0001:0002b730       _CG_DrawWarmupStartBanner  1002c730 f   cg_draw.obj
 0001:0002b860       _CG_PlayWarmupCountSound   1002c860 f   cg_draw.obj
 0001:0002b944       $LN18                      1002c944     cg_draw.obj
 0001:0002b960       _CG_DrawWarmupStatusText   1002c960 f   cg_draw.obj
 0001:0002bd6c       $LN48                      1002cd6c     cg_draw.obj
 0001:0002bd74       $LN47                      1002cd74     cg_draw.obj
 0001:0002bd80       _CG_DrawMatchPauseStatus   1002cd80 f   cg_draw.obj
 0001:0002bea0       _CG_DominationPointLabel   1002cea0 f   cg_draw.obj
 0001:0002bef0       $LN11                      1002cef0     cg_draw.obj
 0001:0002bf10       _CG_DrawDominationPointStatus 1002cf10 f   cg_draw.obj
 0001:0002c480       _CG_DrawWarmup             1002d480 f   cg_draw.obj
 0001:0002c7b0       _CG_FormatSignedMilliseconds 1002d7b0 f   cg_draw.obj
 0001:0002c880       _CG_IsTrainingTutorialSession 1002d880 f   cg_draw.obj
 0001:0002c970       _CG_DrawDemoControlPair    1002d970 f   cg_draw.obj
 0001:0002ca90       _CG_SetIgnoreMouseInput    1002da90 f   cg_draw.obj
 0001:0002cad0       _CG_UpdateTimeoutMouseInput 1002dad0 f   cg_draw.obj
 0001:0002cb30       _CG_HasVisibleMenu         1002db30 f   cg_draw.obj
 0001:0002cb80       _CG_UpdateSpIntermissionMouseInput 1002db80 f   cg_draw.obj
 0001:0002cbb0       _CG_DrawReduced2D          1002dbb0 f   cg_draw.obj
 0001:0002cbe0       _CG_DrawPregamePlacementPrompt 1002dbe0 f   cg_draw.obj
 0001:0002ce20       _CG_DrawDemoPlaybackControls 1002de20 f   cg_draw.obj
 0001:0002d1a0       _CG_DrawStatsMenu          1002e1a0 f   cg_draw.obj
 0001:0002d210       _CG_ComputeIntermissionLetterboxHeight 1002e210 f   cg_draw.obj
 0001:0002d2f0       _CG_DrawIntermissionLetterbox 1002e2f0 f   cg_draw.obj
 0001:0002d450       _CG_Draw2D                 1002e450 f   cg_draw.obj
 0001:0002e850       _CG_GetAdjustedXScale      1002f850 f   cg_drawtools.obj
 0001:0002ea30       _CG_TileClearBox           1002fa30 f   cg_drawtools.obj
 0001:0002eb00       _UI_DrawBannerString2      1002fb00 f   cg_drawtools.obj
 0001:0002eee0       _UI_DrawProportionalString2 1002fee0 f   cg_drawtools.obj
 0001:0002f120       _CrossProduct              10030120 f   cg_effects.obj
 0001:000314e0       _CG_SpawnDeathEffect       100324e0 f   cg_effects.obj
 0001:000317b0       _CG_SpawnBigExplodeTracer  100327b0 f   cg_effects.obj
 0001:00031a00       _CG_SpawnBigExplodeTracers 10032a00 f   cg_effects.obj
 0001:00031d90       _CG_LaunchBigExplodeFragments 10032d90 f   cg_effects.obj
 0001:00032480       _CG_BigExplodeImpl         10033480 f   cg_effects.obj
 0001:000324c0       _CG_LaunchFragmentEntity   100334c0 f   cg_effects.obj
 0001:000326e0       _CG_LaunchThawGib          100336e0 f   cg_effects.obj
 0001:00032720       _VectorLength              10033720 f   cg_ents.obj
 0001:000327b0       _Distance                  100337b0 f   cg_ents.obj
 0001:00032870       _CrossProduct              10033870 f   cg_ents.obj
 0001:00033570       _CG_EntityEffects          10034570 f   cg_ents.obj
 0001:00033690       _CG_General                10034690 f   cg_ents.obj
 0001:00033820       _CG_Speaker                10034820 f   cg_ents.obj
 0001:000338f0       _CG_POILocalTeam           100348f0 f   cg_ents.obj
 0001:00033940       _CG_POIObjectiveIndexForItem 10034940 f   cg_ents.obj
 0001:00033990       _CG_UpdatePOIObjectiveCache 10034990 f   cg_ents.obj
 0001:00033a30       _CG_ItemPOIPowerupLiveShader 10034a30 f   cg_ents.obj
 0001:00033a8c       $LN12                      10034a8c     cg_ents.obj
 0001:00033aa0       _CG_ItemPOIIsQuadHogWorldQuad 10034aa0 f   cg_ents.obj
 0001:00033b10       _CG_ItemPOIPowerupMarker   10034b10 f   cg_ents.obj
 0001:00033db0       _CG_ItemPOITeamShader      10034db0 f   cg_ents.obj
 0001:00033ef0       _CG_QueueItemPOIMarker     10034ef0 f   cg_ents.obj
 0001:000340a0       _CG_Item                   100350a0 f   cg_ents.obj
 0001:000355b0       _CG_Missile                100365b0 f   cg_ents.obj
 0001:000359d0       _CG_Grapple                100369d0 f   cg_ents.obj
 0001:00035c10       _CG_Mover                  10036c10 f   cg_ents.obj
 0001:00035dd0       _CG_Portal                 10036dd0 f   cg_ents.obj
 0001:00036070       _CG_InterpolateEntityPosition 10037070 f   cg_ents.obj
 0001:000362e0       _CG_CalcEntityLerpPositions 100372e0 f   cg_ents.obj
 0001:000363e0       _CG_DominationClampTeam    100373e0 f   cg_ents.obj
 0001:00036400       _CG_DominationProgressIndex 10037400 f   cg_ents.obj
 0001:00036460       _CG_DominationSelectShader 10037460 f   cg_ents.obj
 0001:000364d0       _CG_DominationAddBillboard 100374d0 f   cg_ents.obj
 0001:000365f0       _CG_QueueDominationPointBillboard 100375f0 f   cg_ents.obj
 0001:00036840       _CG_DominationPoint        10037840 f   cg_ents.obj
 0001:00036b10       _CG_TeamBase               10037b10 f   cg_ents.obj
 0001:00037580       _CG_AddCEntity             10038580 f   cg_ents.obj
 0001:00037678       $LN18                      10038678     cg_ents.obj
 0001:000376c0       _DistanceSquared           100386c0 f   cg_event.obj
 0001:000377e0       _CG_IsTeamWinnerGametype   100387e0 f   cg_event.obj
 0001:00039c64       $LN338                     1003ac64     cg_event.obj
 0001:00039df0       $LN339                     1003adf0     cg_event.obj
 0001:00039e00       $LN340                     1003ae00     cg_event.obj
 0001:0003a060       _CG_GetDamagePlumColor     1003b060 f   cg_event.obj
 0001:0003a670       $LN32                      1003b670     cg_event.obj
 0001:0003a6b0       _CG_DamagePlum             1003b6b0 f   cg_event.obj
 0001:0003a950       _CG_POIEvent               1003b950 f   cg_event.obj
 0001:0003ac40       _CG_ShouldSuppressPredictedRailEvent 1003bc40 f   cg_event.obj
 0001:0003ad60       _CG_MatchClockMilliseconds 1003bd60 f   cg_event.obj
 0001:0003ae70       _CG_IsRetailLocalEventClient 1003be70 f   cg_event.obj
 0001:0003af00       _CG_IsLocalPlayerWinner    1003bf00 f   cg_event.obj
 0001:0003b030       _CG_GetRetailEventClientNum 1003c030 f   cg_event.obj
 0001:0003b070       _CG_GetGlobalTeamSoundTrackedClientNum 1003c070 f   cg_event.obj
 0001:0003b0b0       _CG_GetGlobalTeamSoundTeam 1003c0b0 f   cg_event.obj
 0001:0003b0f0       _CG_GetGlobalTeamSoundIndex 1003c0f0 f   cg_event.obj
 0001:0003b110       _CG_PlayDominationPointAnnouncement 1003c110 f   cg_event.obj
 0001:0003b200       _CG_GetRetailDamagePlumDamage 1003c200 f   cg_event.obj
 0001:0003b230       _CG_GetRetailDamagePlumWeapon 1003c230 f   cg_event.obj
 0001:0003b2a0       _CG_GetRetailAwardType     1003c2a0 f   cg_event.obj
 0001:0003b2e0       _CG_GetRetailAwardCount    1003c2e0 f   cg_event.obj
 0001:0003b310       _CG_HandleRetailAwardEvent 1003c310 f   cg_event.obj
 0001:0003b544       $LN35                      1003c544     cg_event.obj
 0001:0003b570       _CG_TryFollowKiller        1003c570 f   cg_event.obj
 0001:0003b600       _CG_UseItemCenterPrintScale 1003c600 f   cg_event.obj
 0001:0003b620       _CG_TrackFlagCarrierByPowerup 1003c620 f   cg_event.obj
 0001:0003b6a0       _CG_TrackFlagCarrierForEvent 1003c6a0 f   cg_event.obj
 0001:0003b760       _CG_ObituaryFeedLimit      1003c760 f   cg_event.obj
 0001:0003b790       _CG_ObituaryColorIndexForClient 1003c790 f   cg_event.obj
 0001:0003b7f0       _CG_SanitizeObituaryText   1003c7f0 f   cg_event.obj
 0001:0003b890       _CG_SetObituaryName        1003c890 f   cg_event.obj
 0001:0003b910       _CG_ClearObituaryEntry     1003c910 f   cg_event.obj
 0001:0003b930       _CG_ShiftObituaryFeedLeft  1003c930 f   cg_event.obj
 0001:0003b9a0       _CG_CompactObituaryFeed    1003c9a0 f   cg_event.obj
 0001:0003ba50       _CG_RecordObituaryFeedEntry 1003ca50 f   cg_event.obj
 0001:0003bba0       _CG_Obituary               1003cba0 f   cg_event.obj
 0001:0003c1d4       $LN87                      1003d1d4     cg_event.obj
 0001:0003c1f8       $LN88                      1003d1f8     cg_event.obj
 0001:0003c214       $LN86                      1003d214     cg_event.obj
 0001:0003c22c       $LN89                      1003d22c     cg_event.obj
 0001:0003c2a0       _CG_UseItem                1003d2a0 f   cg_event.obj
 0001:0003c40c       $LN19                      1003d40c     cg_event.obj
 0001:0003c420       _CG_ItemPickup             1003d420 f   cg_event.obj
 0001:0003c490       _CG_IsSpectatorItemPickupEvent 1003d490 f   cg_event.obj
 0001:0003c580       _CG_HandleRetailOvertimeEvent 1003d580 f   cg_event.obj
 0001:0003cd90       _CG_DrawLoadingBackground  1003dd90 f   cg_info.obj
 0001:0003ceb0       _CG_GetLoadingGametype     1003deb0 f   cg_info.obj
 0001:0003cee0       _CG_DrawLoadingText        1003dee0 f   cg_info.obj
 0001:0003cf90       _CG_SetLoadingScreenText   1003df90 f   cg_info.obj
 0001:0003cfd0       _CG_DrawLoadingProgress    1003dfd0 f   cg_info.obj
 0001:0003d080       _VectorLength              1003e080 f   cg_localents.obj
 0001:0003d110       _CrossProduct              1003e110 f   cg_localents.obj
 0001:0003d478       $LN26                      1003e478     cg_localents.obj
 0001:0003d4c0       _CG_GetLocalTrajectoryExtra 1003e4c0 f   cg_localents.obj
 0001:0003d500       _CG_EvaluateLocalTrajectory 1003e500 f   cg_localents.obj
 0001:0003d620       _CG_EvaluateLocalTrajectoryDelta 1003e620 f   cg_localents.obj
 0001:0003d890       _CG_IceTrail               1003e890 f   cg_localents.obj
 0001:0003e090       _CG_AddFragmentTrail       1003f090 f   cg_localents.obj
 0001:0003e1a0       _CG_AddFragmentImpl        1003f1a0 f   cg_localents.obj
 0001:0003e610       _CG_AddSpriteEffectCommon  1003f610 f   cg_localents.obj
 0001:0003e8b0       _CG_AddBigExplodeTracer    1003f8b0 f   cg_localents.obj
 0001:0003e8d0       _CG_AddDeathEffect         1003f8d0 f   cg_localents.obj
 0001:0003e9f0       _CG_AddType10              1003f9f0 f   cg_localents.obj
 0001:0003fa30       _CG_AddMoveScaleFade       10040a30 f   cg_localents.obj
 0001:0003fc30       _CG_AddScaleFade           10040c30 f   cg_localents.obj
 0001:0003fdb0       _CG_AddFallScaleFade       10040db0 f   cg_localents.obj
 0001:0003ff80       _CG_AddExplosion           10040f80 f   cg_localents.obj
 0001:000400b0       _CG_AddSpriteExplosion     100410b0 f   cg_localents.obj
 0001:00042e20       _CG_UpdateSimpleItemsSettings 10043e20 f   cg_main.obj
 0001:00042ed0       _CG_UpdateCrosshairColorSettings 10043ed0 f   cg_main.obj
 0001:00043010       _CG_UpdateCrosshairPulseSettings 10044010 f   cg_main.obj
 0001:00043060       _CG_UpdateCrosshairHitSettings 10044060 f   cg_main.obj
 0001:00043180       _CG_UpdateAutomationSettings 10044180 f   cg_main.obj
 0001:00043270       _CG_ClearAutomationState   10044270 f   cg_main.obj
 0001:00043300       _CG_IsCompactChatHudActive 10044300 f   cg_main.obj
 0001:00043310       _CG_GetPhysicsTime         10044310 f   cg_main.obj
 0001:00043320       _CG_GetChatFieldY          10044320 f   cg_main.obj
 0001:00043350       _CG_GetChatFieldPixelWidth 10044350 f   cg_main.obj
 0001:00043380       _CG_GetChatFieldWidthInChars 10044380 f   cg_main.obj
 0001:000433b0       _CG_CopyClientIdentity     100443b0 f   cg_main.obj
 0001:000434c0       _CG_NativeGetChatFieldY    100444c0 f   cg_main.obj
 0001:000434e0       _CG_NativeGetChatFieldPixelWidth 100444e0 f   cg_main.obj
 0001:00043500       _CG_NativeSetClientSpeakingState 10044500 f   cg_main.obj
 0001:00043520       _CG_ShowTrackedPlayerSlot  10044520 f   cg_main.obj
 0001:000435a0       _CG_Show1stTrackedPlayer   100445a0 f   cg_main.obj
 0001:000435b0       _CG_Show2ndTrackedPlayer   100445b0 f   cg_main.obj
 0001:00043620       _CG_NativeDrawActiveFrame  10044620 f   cg_main.obj
 0001:00043640       _CG_NativeKeyEvent         10044640 f   cg_main.obj
 0001:000437ec       $LN29                      100447ec     cg_main.obj
 0001:00043840       _CG_NativeMouseEvent       10044840 f   cg_main.obj
 0001:00043870       _CG_NativeChatDown         10044870 f   cg_main.obj
 0001:00043880       _CG_NativeChatUp           10044880 f   cg_main.obj
 0001:000438a0       _CG_ParseDamagePlumWeaponMask 100448a0 f   cg_main.obj
 0001:00043ac0       _CG_ClassifyDamagePlumPreset 10044ac0 f   cg_main.obj
 0001:00043b60       _CG_ParseDamagePlumColorStyleValue 10044b60 f   cg_main.obj
 0001:00043b90       _CG_UpdateDamagePlumSettings 10044b90 f   cg_main.obj
 0001:00043c10       _CG_RetailAnnouncerFolderForProfile 10044c10 f   cg_main.obj
 0001:00043c50       _CG_RegisterRetailAnnouncerClip 10044c50 f   cg_main.obj
 0001:00043d20       _CG_RegisterAnnouncerClip  10044d20 f   cg_main.obj
 0001:00043e10       _CG_RegisterAnnouncerVoiceSet 10044e10 f   cg_main.obj
 0001:00043fc0       _CG_RegisterRaceCueSound   10044fc0 f   cg_main.obj
 0001:00044090       _CG_SetActiveAnnouncerProfile 10045090 f   cg_main.obj
 0001:00044230       _CG_UpdateAnnouncerProfileFromCvar 10045230 f   cg_main.obj
 0001:000442c0       _CG_ParseLastMessageValue  100452c0 f   cg_main.obj
 0001:000443e0       _CG_WriteLastMessageCvar   100453e0 f   cg_main.obj
 0001:00044450       _CG_ReplayLastMessageFromCvar 10045450 f   cg_main.obj
 0001:000444e0       _CG_RetailWeaponFromToken  100454e0 f   cg_main.obj
 0001:00044550       _CG_StartingWeaponIconIndexForWeapon 10045550 f   cg_main.obj
 0001:000445dc       $LN20                      100455dc     cg_main.obj
 0001:00044620       _CG_ParseDeadBodyHexDigit  10045620 f   cg_main.obj
 0001:00044680       _CG_ParseDeadBodyColor     10045680 f   cg_main.obj
 0001:000448c0       _CG_UpdateDeadBodyPalette  100458c0 f   cg_main.obj
 0001:00044970       _CG_ParseHexNibble         10045970 f   cg_main.obj
 0001:000449d0       _CG_ParseWeaponBarColor    100459d0 f   cg_main.obj
 0001:00044ac0       _CG_UpdateWeaponBarGrenadeColor 10045ac0 f   cg_main.obj
 0001:00044b80       _CG_UpdateLowAmmoWarningPercentile 10045b80 f   cg_main.obj
 0001:00044bd0       _CG_UpdateScreenDamageColorFromCvar 10045bd0 f   cg_main.obj
 0001:00044c90       _CG_UpdateScreenDamageAlphaFromCvar 10045c90 f   cg_main.obj
 0001:00044ce0       _CG_ForceModelChange       10045ce0 f   cg_main.obj
 0001:00044d40       _CG_ParseCrosshairColorString 10045d40 f   cg_main.obj
 0001:000450e0       _CG_SetCrosshairColorFromIndex 100460e0 f   cg_main.obj
 0001:00045170       _CG_RegisterItemSounds     10046170 f   cg_main.obj
 0001:000452b0       _CG_HaveDlcGibs            100462b0 f   cg_main.obj
 0001:00045300       _CG_RegisterSounds         10046300 f   cg_main.obj
 0001:000469b0       _CG_RegisterGraphics       100479b0 f   cg_main.obj
 0001:00047f00       _CG_CompareSpectatorClients 10048f00 f   cg_main.obj
 0001:00047fb0       _CG_RegisterClients        10048fb0 f   cg_main.obj
 0001:00048820       _CG_OwnerDrawHandleKey     10049820 f   cg_main.obj
 0001:00048830       _CG_FindScoreIndexForClient 10049830 f   cg_main.obj
 0001:00048870       _CG_IsScoreboardFeeder     10049870 f   cg_main.obj
 0001:000488b0       _CG_IsTeamStatsFeeder      100498b0 f   cg_main.obj
 0001:000488f0       _CG_GetFeederTeam          100498f0 f   cg_main.obj
 0001:00048950       _CG_FeederCount            10049950 f   cg_main.obj
 0001:00048ab0       _CG_GetScoreboardSelectionMenuName 10049ab0 f   cg_main.obj
 0001:00048c00       $LN37                      10049c00     cg_main.obj
 0001:00048c34       $LN38                      10049c34     cg_main.obj
 0001:00048c70       _CG_CacheScoreboardSelectionMenus 10049c70 f   cg_main.obj
 0001:00048d10       _CG_FindScoreboardTeamListItem 10049d10 f   cg_main.obj
 0001:00048da0       _CG_SetScoreboardTeamListCursor 10049da0 f   cg_main.obj
 0001:00048e00       _CG_SyncScoreboardTeamListSelection 10049e00 f   cg_main.obj
 0001:00048e90       _CG_InfoFromScoreIndex     10049e90 f   cg_main.obj
 0001:00048f80       _CG_IsClientMutedLocally   10049f80 f   cg_main.obj
 0001:00049000       _CG_FeederSocialHandle     1004a000 f   cg_main.obj
 0001:00049080       _CG_BuildFeederRow         1004a080 f   cg_main.obj
 0001:00049170       _CG_FeederItemTextBaseColumns 1004a170 f   cg_main.obj
 0001:00049528       $LN40                      1004a528     cg_main.obj
 0001:00049550       _CG_FeederItemTextScoreboard 1004a550 f   cg_main.obj
 0001:00049590       _CG_FeederItemTextRaceScoreboard 1004a590 f   cg_main.obj
 0001:000495b0       _CG_FeederItemTextTeamListLeadColumns 1004a5b0 f   cg_main.obj
 0001:0004984c       $LN27                      1004a84c     cg_main.obj
 0001:00049870       _CG_FeederItemTextFallbackTeamList 1004a870 f   cg_main.obj
 0001:00049950       _CG_FeederItemTextCTFFamilyTeamList 1004a950 f   cg_main.obj
 0001:00049a6c       $LN15                      1004aa6c     cg_main.obj
 0001:00049a90       _CG_FeederItemTextClanArenaTeamList 1004aa90 f   cg_main.obj
 0001:00049be0       $LN16                      1004abe0     cg_main.obj
 0001:00049c00       _CG_FeederItemTextTDMFreezeTeamList 1004ac00 f   cg_main.obj
 0001:00049dd4       $LN21                      1004add4     cg_main.obj
 0001:00049df0       _CG_FeederItemTextTDMFreezeStats 1004adf0 f   cg_main.obj
 0001:0004a0c4       $LN27                      1004b0c4     cg_main.obj
 0001:0004a110       _CG_FeederItemTextClanArenaStats 1004b110 f   cg_main.obj
 0001:0004a418       $LN26                      1004b418     cg_main.obj
 0001:0004a460       _CG_FeederItemTextCTFFamilyStats 1004b460 f   cg_main.obj
 0001:0004a738       $LN28                      1004b738     cg_main.obj
 0001:0004a790       _CG_FeederItemText         1004b790 f   cg_main.obj
 0001:0004a940       $LN20                      1004b940     cg_main.obj
 0001:0004a950       $LN18                      1004b950     cg_main.obj
 0001:0004a95c       $LN21                      1004b95c     cg_main.obj
 0001:0004a96c       $LN19                      1004b96c     cg_main.obj
 0001:0004a980       _CG_FeederItemImage        1004b980 f   cg_main.obj
 0001:0004a990       _CG_FeederSelection        1004b990 f   cg_main.obj
 0001:0004ab50       _CG_Cvar_Get               1004bb50 f   cg_main.obj
 0001:0004ac10       _CG_LevelTimerWidth        1004bc10 f   cg_main.obj
 0001:0004aca0       _CG_RoundLabelWidth        1004bca0 f   cg_main.obj
 0001:0004ad80       _CG_OwnerDrawWidth         1004bd80 f   cg_main.obj
 0001:0004affc       $LN24                      1004bffc     cg_main.obj
 0001:0004b024       $LN23                      1004c024     cg_main.obj
 0001:0004b0a0       _CG_PlayCinematic          1004c0a0 f   cg_main.obj
 0001:0004b0d0       _CG_StopCinematic          1004c0d0 f   cg_main.obj
 0001:0004b0f0       _CG_DrawCinematic          1004c0f0 f   cg_main.obj
 0001:0004b130       _CG_RunCinematicFrame      1004c130 f   cg_main.obj
 0001:0004b150       _CG_RegisterScoreTextures  1004c150 f   cg_main.obj
 0001:0004b190       _CG_IsCountryCodeToken     1004c190 f   cg_main.obj
 0001:0004b240       _CG_CacheCountryFlags      1004c240 f   cg_main.obj
 0001:0004b3b0       _CG_HudScriptHasCompetitiveMenus 1004c3b0 f   cg_main.obj
 0001:0004b4b0       _CG_InitDisplayContext     1004c4b0 f   cg_main.obj
 0001:0004b700       _CG_RegisterHudFonts       1004c700 f   cg_main.obj
 0001:0004b910       _VectorLength              1004c910 f   cg_newdraw.obj
 0001:0004b9a0       _CG_HasObjectiveCountStat  1004c9a0 f   cg_newdraw.obj
 0001:0004b9d0       _CG_IsTeamWinnerGametype   1004c9d0 f   cg_newdraw.obj
 0001:0004d8dc       $LN158                     1004e8dc     cg_newdraw.obj
 0001:0004db18       $LN157                     1004eb18     cg_newdraw.obj
 0001:0004e3d0       $LN17                      1004f3d0     cg_newdraw.obj
 0001:0004e3e4       $LN16                      1004f3e4     cg_newdraw.obj
 0001:0004eec8       $LN13                      1004fec8     cg_newdraw.obj
 0001:0004eed4       $LN12                      1004fed4     cg_newdraw.obj
 0001:0004f228       $LN22                      10050228     cg_newdraw.obj
 0001:0004f2d0       $LN19                      100502d0     cg_newdraw.obj
 0001:0004f678       $LN13                      10050678     cg_newdraw.obj
 0001:0005014c       $LN21                      1005114c     cg_newdraw.obj
 0001:000501f0       _CG_ResolveWeaponName      100511f0 f   cg_newdraw.obj
 0001:00050250       _CG_DrawVoteShot           10051250 f   cg_newdraw.obj
 0001:00050350       _CG_AlignTextX             10051350 f   cg_newdraw.obj
 0001:000503e0       _CG_AlignTextInRectX       100513e0 f   cg_newdraw.obj
 0001:00050460       _CG_Text_Paint_Limit       10051460 f   cg_newdraw.obj
 0001:000506f0       _CG_PluralSuffix           100516f0 f   cg_newdraw.obj
 0001:00050720       _CG_DrawServerSettings     10051720 f   cg_newdraw.obj
 0001:000510f0       _CG_DrawStartingWeapons    100520f0 f   cg_newdraw.obj
 0001:000513d0       _CG_DrawGameLimit          100523d0 f   cg_newdraw.obj
 0001:000516c0       $LN24                      100526c0     cg_newdraw.obj
 0001:000516cc       $LN23                      100526cc     cg_newdraw.obj
 0001:000516e0       _CG_DrawGameTypeIcon       100526e0 f   cg_newdraw.obj
 0001:00051750       _CG_DrawGameTypeMap        10052750 f   cg_newdraw.obj
 0001:00051830       _CG_DrawMatchDetails       10052830 f   cg_newdraw.obj
 0001:00051910       _CG_DrawMatchEndCondition  10052910 f   cg_newdraw.obj
 0001:00051a00       _CG_DrawMatchStatus        10052a00 f   cg_newdraw.obj
 0001:00051a90       _CG_DrawRoundLabel         10052a90 f   cg_newdraw.obj
 0001:00051b20       _CG_DrawLocalTime          10052b20 f   cg_newdraw.obj
 0001:00051c10       _CG_DrawVoteGametype       10052c10 f   cg_newdraw.obj
 0001:00051ce0       _CG_DrawVoteName           10052ce0 f   cg_newdraw.obj
 0001:00051de0       _CG_DrawVoteMapSlot        10052de0 f   cg_newdraw.obj
 0001:00051eb0       _CG_DrawVoteCount          10052eb0 f   cg_newdraw.obj
 0001:00051fa0       _CG_DrawVoteTimer          10052fa0 f   cg_newdraw.obj
 0001:000520b0       _CG_DrawScoreboxFollowBackground 100530b0 f   cg_newdraw.obj
 0001:00052250       _CG_DrawScoreboxSpecBackground 10053250 f   cg_newdraw.obj
 0001:000523f0       _CG_DrawRoundBackground    100533f0 f   cg_newdraw.obj
 0001:000525d0       _CG_DrawOvertimeBackground 100535d0 f   cg_newdraw.obj
 0001:000527b0       _CG_TranslateHudRectForWidescreen 100537b0 f   cg_newdraw.obj
 0001:00052860       _CG_UpdateSpectatorTargets 10053860 f   cg_newdraw.obj
 0001:000529f0       _CG_LoadoutsEnabled        100539f0 f   cg_newdraw.obj
 0001:00052a70       _CG_RaceFormatMilliseconds 10053a70 f   cg_newdraw.obj
 0001:00052b00       _CG_RacePointContainsIndex 10053b00 f   cg_newdraw.obj
 0001:00052c80       _CG_RaceProgressForClient  10053c80 f   cg_newdraw.obj
 0001:00052ca0       _CG_RaceStatusForClient    10053ca0 f   cg_newdraw.obj
 0001:00052cd0       _CG_RaceShouldPlayCheckpointFeedback 10053cd0 f   cg_newdraw.obj
 0001:00052d50       _CG_RacePlayCheckpointFeedback 10053d50 f   cg_newdraw.obj
 0001:00052e40       _CG_RaceUpdateClientProgress 10053e40 f   cg_newdraw.obj
 0001:00052ff0       _CG_RaceResolveClientNum   10053ff0 f   cg_newdraw.obj
 0001:00053070       _CG_RaceGetClientOrigin    10054070 f   cg_newdraw.obj
 0001:00053170       _CG_RacePrepareHudState    10054170 f   cg_newdraw.obj
 0001:00053240       _CG_RaceCurrentLapNumber   10054240 f   cg_newdraw.obj
 0001:00053280       _CG_RaceLeaderBestTime     10054280 f   cg_newdraw.obj
 0001:000532f0       _CG_RaceFormatDelta        100542f0 f   cg_newdraw.obj
 0001:00053340       _CG_RaceCheckpointDelta    10054340 f   cg_newdraw.obj
 0001:000533b0       _CG_RaceBuildRespawnPrompt 100543b0 f   cg_newdraw.obj
 0001:000534b0       _CG_RaceBuildStatusString  100544b0 f   cg_newdraw.obj
 0001:00053640       _CG_RaceBuildTimesStrings  10054640 f   cg_newdraw.obj
 0001:00053930       _CG_DrawRaceStatusAndTimes 10054930 f   cg_newdraw.obj
 0001:00053b00       _CG_GetScoreForClientNum   10054b00 f   cg_newdraw.obj
 0001:00053b60       _CG_BuildSpectatorClientOrder 10054b60 f   cg_newdraw.obj
 0001:00053c80       _CG_SpectatorClientInfo    10054c80 f   cg_newdraw.obj
 0001:00053cf0       _CG_SpectatorClientScore   10054cf0 f   cg_newdraw.obj
 0001:00053d40       _CG_SpectatorSlotFollowed  10054d40 f   cg_newdraw.obj
 0001:00053d90       _CG_SpectatorSlotTracked   10054d90 f   cg_newdraw.obj
 0001:00053e30       _CG_ShouldAutoFollowTrack  10054e30 f   cg_newdraw.obj
 0001:00053e80       _CG_TryAutoFollowPowerup   10054e80 f   cg_newdraw.obj
 0001:00053ee0       _CG_SetTrackPlayerCvarValue 10054ee0 f   cg_newdraw.obj
 0001:00053f70       _CG_GetArmorTierColor      10054f70 f   cg_newdraw.obj
 0001:00054120       _CG_NormalizedTo100        10055120 f   cg_newdraw.obj
 0001:00054170       _CG_NormalizedTo200        10055170 f   cg_newdraw.obj
 0001:000541c0       _CG_DrawBarFill            100551c0 f   cg_newdraw.obj
 0001:00054340       _CG_DrawPlayerHealthBarRange 10055340 f   cg_newdraw.obj
 0001:00054440       _CG_DrawPlayerHealthBar100 10055440 f   cg_newdraw.obj
 0001:00054460       _CG_DrawPlayerHealthBar200 10055460 f   cg_newdraw.obj
 0001:00054480       _CG_DrawPlayerArmorBarRange 10055480 f   cg_newdraw.obj
 0001:00054560       _CG_DrawPlayerArmorBar100  10055560 f   cg_newdraw.obj
 0001:00054580       _CG_DrawPlayerArmorBar200  10055580 f   cg_newdraw.obj
 0001:000545a0       _CG_CountLivingPlayers     100555a0 f   cg_newdraw.obj
 0001:00054740       _CG_DrawPlayerCount        10055740 f   cg_newdraw.obj
 0001:00054820       _CG_SampleSpeedometer      10055820 f   cg_newdraw.obj
 0001:00054910       _CG_DrawSpeedometer        10055910 f   cg_newdraw.obj
 0001:000549f0       _CG_DrawSpeedometerOwnerDraw 100559f0 f   cg_newdraw.obj
 0001:00054a20       _CG_DrawSpectatorPlayerName 10055a20 f   cg_newdraw.obj
 0001:00054c70       _CG_DrawSpectatorPlayerScore 10055c70 f   cg_newdraw.obj
 0001:00054d10       _CG_GetProfileFallbackShader 10055d10 f   cg_newdraw.obj
 0001:00054d50       _CG_DrawSpectatorProfileImage 10055d50 f   cg_newdraw.obj
 0001:00054ea0       _CG_GetPlacementFlagShader 10055ea0 f   cg_newdraw.obj
 0001:00054f00       _CG_DrawPlacementFlagOwnerDraw 10055f00 f   cg_newdraw.obj
 0001:00054f70       _CG_DrawPlacementAvatarOwnerDraw 10055f70 f   cg_newdraw.obj
 0001:00054f90       _CG_GetSpectatorOwnerDrawSlot 10055f90 f   cg_newdraw.obj
 0001:00054fd0       $LN9                       10055fd0     cg_newdraw.obj
 0001:00054fdc       $LN8                       10055fdc     cg_newdraw.obj
 0001:000550c0       _CG_DrawSpectatorFollowIndicator 100560c0 f   cg_newdraw.obj
 0001:00055320       _CG_DrawSpectatorComparison 10056320 f   cg_newdraw.obj
 0001:00055870       _CG_GetSelectedClientInfo  10056870 f   cg_newdraw.obj
 0001:000558c0       _CG_GetTeamLabel           100568c0 f   cg_newdraw.obj
 0001:000558e0       _CG_CountPlayersForTeam    100568e0 f   cg_newdraw.obj
 0001:00055930       _CG_CountActivePlayers     10056930 f   cg_newdraw.obj
 0001:00055980       _CG_CleanMapName           10056980 f   cg_newdraw.obj
 0001:00055a30       _CG_BuildCleanMapName      10056a30 f   cg_newdraw.obj
 0001:00055b00       _CG_DrawMapName            10056b00 f   cg_newdraw.obj
 0001:00055b80       _CG_GetServerInfoValue     10056b80 f   cg_newdraw.obj
 0001:00055c00       _CG_GetMapDisplayName      10056c00 f   cg_newdraw.obj
 0001:00055c20       _CG_GetConfiguredPlayerCountLimit 10056c20 f   cg_newdraw.obj
 0001:00055c80       _CG_DrawPlayerCounts       10056c80 f   cg_newdraw.obj
 0001:00055d30       _CG_GetStartingWeaponPreviewMask 10056d30 f   cg_newdraw.obj
 0001:00055ea0       _CG_GetStartingWeaponIconHandle 10056ea0 f   cg_newdraw.obj
 0001:00055ee0       _CG_GetServerLocation      10056ee0 f   cg_newdraw.obj
 0001:00056000       _CG_BuildIntroPanelDetailString 10057000 f   cg_newdraw.obj
 0001:000560e0       _CG_GameTypeShortString    100570e0 f   cg_newdraw.obj
 0001:00056160       $LN19                      10057160     cg_newdraw.obj
 0001:000561a0       _CG_GetTextPosition        100571a0 f   cg_newdraw.obj
 0001:00056200       _CG_GameTypeIconShader     10057200 f   cg_newdraw.obj
 0001:00056220       _CG_GetMatchStateLabel     10057220 f   cg_newdraw.obj
 0001:000562c0       _CG_GetMatchDetailsPhaseLabel 100572c0 f   cg_newdraw.obj
 0001:00056300       _CG_TimeLimitHit           10057300 f   cg_newdraw.obj
 0001:00056350       _CG_FragLimitHit           10057350 f   cg_newdraw.obj
 0001:00056390       _CG_CaptureLimitHit        10057390 f   cg_newdraw.obj
 0001:000563f0       _CG_ScoreLimitHit          100573f0 f   cg_newdraw.obj
 0001:000564f0       _CG_MercyLimitHit          100574f0 f   cg_newdraw.obj
 0001:00056610       _CG_GetMatchPhaseText      10057610 f   cg_newdraw.obj
 0001:00056650       _CG_GetMatchStatusText     10057650 f   cg_newdraw.obj
 0001:000566b0       _CG_IsActiveScoreEntry     100576b0 f   cg_newdraw.obj
 0001:00056720       _CG_GetActiveScoreByIndex  10057720 f   cg_newdraw.obj
 0001:000567a0       _CG_GetEndGameScoreText    100577a0 f   cg_newdraw.obj
 0001:00056a10       _CG_GetMatchWinnerText     10057a10 f   cg_newdraw.obj
 0001:00056d00       _CG_DrawMatchWinner        10057d00 f   cg_newdraw.obj
 0001:00056da0       _CG_DrawEndGameScore       10057da0 f   cg_newdraw.obj
 0001:00056e40       _CG_BuildVoteSlotCvarName  10057e40 f   cg_newdraw.obj
 0001:00056e80       _CG_GetVoteSlotString      10057e80 f   cg_newdraw.obj
 0001:00056f00       _CG_DrawSelectedPlayerTeamColor 10057f00 f   cg_newdraw.obj
 0001:000570a0       _CG_DrawSelectedPlayerAccuracy 100580a0 f   cg_newdraw.obj
 0001:00057140       _CG_DrawWeaponVertical     10058140 f   cg_newdraw.obj
 0001:00057200       _CG_DrawAccVertical        10058200 f   cg_newdraw.obj
 0001:000572e0       _CG_DrawTeamPlayerCount    100582e0 f   cg_newdraw.obj
 0001:0005744c       $LN14                      1005844c     cg_newdraw.obj
 0001:00057454       $LN13                      10058454     cg_newdraw.obj
 0001:00057460       _CG_DrawTeamTimeoutCount   10058460 f   cg_newdraw.obj
 0001:00057500       _CG_ClampTeamValue         10058500 f   cg_newdraw.obj
 0001:00057520       _CG_GetRoundTeamCount      10058520 f   cg_newdraw.obj
 0001:00057560       _CG_DrawClanArenaPlayers   10058560 f   cg_newdraw.obj
 0001:00057600       _CG_CountDominationOwnedFlags 10058600 f   cg_newdraw.obj
 0001:000576a0       _CG_DrawDominationOwnedFlags 100586a0 f   cg_newdraw.obj
 0001:00057750       _CG_DrawTeamAveragePing    10058750 f   cg_newdraw.obj
 0001:00057850       _CG_DrawSelectedPlayerBestWeapon 10058850 f   cg_newdraw.obj
 0001:00057940       _CG_DrawProfileModel       10058940 f   cg_newdraw.obj
 0001:00057a90       _CG_DrawFirstPlaceModel    10058a90 f   cg_newdraw.obj
 0001:00057ae0       _CG_GetTeamPickupOwnerDrawMeta 10058ae0 f   cg_newdraw.obj
 0001:00057b80       _CG_IsTeamPickupOwnerDraw  10058b80 f   cg_newdraw.obj
 0001:00057ba0       _CG_IsTeamTimeHeldStatIndex 10058ba0 f   cg_newdraw.obj
 0001:00057bd8       $LN8                       10058bd8     cg_newdraw.obj
 0001:00057be0       $LN7                       10058be0     cg_newdraw.obj
 0001:00057bf0       _CG_IsTeamTimeHeldOwnerDraw 10058bf0 f   cg_newdraw.obj
 0001:00057c20       _CG_IsTeamPickupSummaryOwnerDraw 10058c20 f   cg_newdraw.obj
 0001:00057c50       _CG_GetTeamScoreStatValue  10058c50 f   cg_newdraw.obj
 0001:00057d00       _CG_GetTeamPickupSummaryIconHandle 10058d00 f   cg_newdraw.obj
 0001:00057e94       $LN25                      10058e94     cg_newdraw.obj
 0001:00057ec0       _CG_DrawTeamPickupSummaryOwnerDraw 10058ec0 f   cg_newdraw.obj
 0001:00058200       _CG_BuildTeamPickupText    10059200 f   cg_newdraw.obj
 0001:00058270       _CG_DrawTeamPickupOwnerDraw 10059270 f   cg_newdraw.obj
 0001:00058330       _CG_BuildTeamTimeHeldText  10059330 f   cg_newdraw.obj
 0001:000583f0       _CG_DrawTeamTimeHeldOwnerDraw 100593f0 f   cg_newdraw.obj
 0001:00058480       _CG_GetPlacementScore      10059480 f   cg_newdraw.obj
 0001:000584a0       _CG_GetPlacementClientInfo 100594a0 f   cg_newdraw.obj
 0001:000584e0       _CG_GetPlacementMetricWeapon 100594e0 f   cg_newdraw.obj
 0001:00058590       $LN21                      10059590     cg_newdraw.obj
 0001:000585c4       $LN20                      100595c4     cg_newdraw.obj
 0001:00058610       _CG_GetPlacementScoreStats 10059610 f   cg_newdraw.obj
 0001:00058660       _CG_BuildPlacementWeaponMetricText 10059660 f   cg_newdraw.obj
 0001:00058830       _CG_BuildPlacementPickupMetricText 10059830 f   cg_newdraw.obj
 0001:000589d0       _CG_BuildPlacementProgressionMetricText 100599d0 f   cg_newdraw.obj
 0001:00058a90       _CG_GetPlacementFragCount  10059a90 f   cg_newdraw.obj
 0001:00058ad8       $LN9                       10059ad8     cg_newdraw.obj
 0001:00058ae0       $LN8                       10059ae0     cg_newdraw.obj
 0001:00058af0       _CG_ClientReadyOnIntermission 10059af0 f   cg_newdraw.obj
 0001:00058b50       _CG_BuildPlacementMetricText 10059b50 f   cg_newdraw.obj
 0001:00058e4c       $LN31                      10059e4c     cg_newdraw.obj
 0001:00058e88       $LN30                      10059e88     cg_newdraw.obj
 0001:00058ee0       _CG_DrawPlacementFragsOwnerDraw 10059ee0 f   cg_newdraw.obj
 0001:00058f90       _CG_DrawPlacementDeathsOwnerDraw 10059f90 f   cg_newdraw.obj
 0001:00059040       _CG_DrawPlacementDamageOwnerDraw 1005a040 f   cg_newdraw.obj
 0001:000590f0       _CG_DrawPlacementWinsOwnerDraw 1005a0f0 f   cg_newdraw.obj
 0001:000591b0       _CG_DrawPlacementMetricOwnerDraw 1005a1b0 f   cg_newdraw.obj
 0001:000593a4       $LN18                      1005a3a4     cg_newdraw.obj
 0001:000593d0       _CG_AwardMetricValue       1005a3d0 f   cg_newdraw.obj
 0001:00059460       $LN13                      1005a460     cg_newdraw.obj
 0001:00059480       _CG_FindAwardScore         1005a480 f   cg_newdraw.obj
 0001:00059530       _CG_IsAwardOwnerDraw       1005a530 f   cg_newdraw.obj
 0001:00059560       _CG_GetAwardClientNum      1005a560 f   cg_newdraw.obj
 0001:00059590       _CG_DrawAwardPlayer        1005a590 f   cg_newdraw.obj
 0001:000595f0       _CG_IsPlacementMetricOwnerDraw 1005a5f0 f   cg_newdraw.obj
 0001:00059630       _CG_IsCompetitiveScoreOwnerDraw 1005a630 f   cg_newdraw.obj
 0001:00059700       _CG_DrawMatchState         1005a700 f   cg_newdraw.obj
 0001:00059760       _CG_DrawPregameCoach       1005a760 f   cg_newdraw.obj
 0001:00059a20       _CG_DrawSpectatorMessages  1005aa20 f   cg_newdraw.obj
 0001:00059f28       $LN22                      1005af28     cg_newdraw.obj
 0001:00059f30       $LN21                      1005af30     cg_newdraw.obj
 0001:00059f40       _CG_DrawNewChatArea        1005af40 f   cg_newdraw.obj
 0001:0005a180       _CG_DrawHealthColorized    1005b180 f   cg_newdraw.obj
 0001:0005a400       _CG_DrawArmorTieredColorized 1005b400 f   cg_newdraw.obj
 0001:0005a4a0       _CG_DrawFollowPlayerNameEx 1005b4a0 f   cg_newdraw.obj
 0001:0005a6a0       _CG_DrawTeamColorized      1005b6a0 f   cg_newdraw.obj
 0001:0005a7e0       _CG_DrawLevelTimer         1005b7e0 f   cg_newdraw.obj
 0001:0005a8e0       _CG_DrawRoundTimer         1005b8e0 f   cg_newdraw.obj
 0001:0005aa00       _CG_DrawOvertime           1005ba00 f   cg_newdraw.obj
 0001:0005aab0       _CG_DrawPlayerObituary     1005bab0 f   cg_newdraw.obj
 0001:0005ae10       _CG_SetSelectedPlayerName  1005be10 f   cg_newdraw.obj
 0001:0005aee0       _CG_DrawPlayerArmorIcon    1005bee0 f   cg_newdraw.obj
 0001:0005b0b0       _CG_DrawPlayerArmorValue   1005c0b0 f   cg_newdraw.obj
 0001:0005b210       _CG_DrawPlayerAmmoIcon     1005c210 f   cg_newdraw.obj
 0001:0005b420       _CG_DrawPlayerAmmoValue    1005c420 f   cg_newdraw.obj
 0001:0005b630       _CG_DrawPlayerHead         1005c630 f   cg_newdraw.obj
 0001:0005bb30       _CG_DrawSelectedPlayerHealth 1005cb30 f   cg_newdraw.obj
 0001:0005bc70       _CG_DrawSelectedPlayerArmor 1005cc70 f   cg_newdraw.obj
 0001:0005bdc0       _CG_DrawSelectedPlayerStatus 1005cdc0 f   cg_newdraw.obj
 0001:0005be80       _CG_DrawPlayerStatus       1005ce80 f   cg_newdraw.obj
 0001:0005bf00       _CG_DrawSelectedPlayerName 1005cf00 f   cg_newdraw.obj
 0001:0005bfa0       _CG_DrawSelectedPlayerLocation 1005cfa0 f   cg_newdraw.obj
 0001:0005c050       _CG_DrawPlayerLocation     1005d050 f   cg_newdraw.obj
 0001:0005c100       _CG_DrawSelectedPlayerWeapon 1005d100 f   cg_newdraw.obj
 0001:0005c1e0       _CG_DrawPlayerScore        1005d1e0 f   cg_newdraw.obj
 0001:0005c320       _CG_DrawPlayerItem         1005d320 f   cg_newdraw.obj
 0001:0005c610       _CG_KeyOwnerClientNum      1005d610 f   cg_newdraw.obj
 0001:0005c690       _CG_DrawPlayerHasKey       1005d690 f   cg_newdraw.obj
 0001:0005c810       _CG_DrawSelectedPlayerPowerup 1005d810 f   cg_newdraw.obj
 0001:0005c910       _CG_DrawSelectedPlayerHead 1005d910 f   cg_newdraw.obj
 0001:0005cc40       _CG_DrawPlayerHealth       1005dc40 f   cg_newdraw.obj
 0001:0005cd80       _CG_BuildTeamScoreText     1005dd80 f   cg_newdraw.obj
 0001:0005ce20       _CG_DrawTeamScore          1005de20 f   cg_newdraw.obj
 0001:0005cee0       _CG_DrawTeamName           1005dee0 f   cg_newdraw.obj
 0001:0005cf90       _CG_DrawBlueFlagName       1005df90 f   cg_newdraw.obj
 0001:0005d050       _CG_GetTeamFlagStatusShader 1005e050 f   cg_newdraw.obj
 0001:0005d190       _CG_DrawTeamFlagOrBaseStatus 1005e190 f   cg_newdraw.obj
 0001:0005d250       _CG_DrawBlueFlagHead       1005e250 f   cg_newdraw.obj
 0001:0005d3a0       _CG_DrawRedFlagName        1005e3a0 f   cg_newdraw.obj
 0001:0005d460       _CG_DrawRedFlagHead        1005e460 f   cg_newdraw.obj
 0001:0005d5b0       _CG_HarvesterSkulls        1005e5b0 f   cg_newdraw.obj
 0001:0005d850       _CG_OneFlagStatus          1005e850 f   cg_newdraw.obj
 0001:0005d930       _CG_FlagStatusText         1005e930 f   cg_newdraw.obj
 0001:0005d970       _CG_BuildObjectiveStatusLabel 1005e970 f   cg_newdraw.obj
 0001:0005dbd0       _CG_DrawObjectiveStatus    1005ebd0 f   cg_newdraw.obj
 0001:0005dc50       _CG_DrawCTFPowerUp         1005ec50 f   cg_newdraw.obj
 0001:0005dce0       _CG_DrawTeamColor          1005ece0 f   cg_newdraw.obj
 0001:0005dd40       _CG_DrawPowerupSpriteStack 1005ed40 f   cg_newdraw.obj
 0001:0005e300       _CG_DrawAreaPowerUp        1005f300 f   cg_newdraw.obj
 0001:0005e380       _CG_SpectatorPlayerSlotActive 1005f380 f   cg_newdraw.obj
 0001:0005e3b0       _CG_LocalPlayerHasWeapon   1005f3b0 f   cg_newdraw.obj
 0001:0005e410       _CG_ShowBlueTeamHasRedFlag 1005f410 f   cg_newdraw.obj
 0001:0005e460       _CG_ShowRedTeamHasBlueFlag 1005f460 f   cg_newdraw.obj
 0001:0005e4b0       _CG_DrawPlayerHasFlag      1005f4b0 f   cg_newdraw.obj
 0001:0005e720       _CG_DrawAreaSystemChat     1005f720 f   cg_newdraw.obj
 0001:0005e780       _CG_DrawAreaTeamChat       1005f780 f   cg_newdraw.obj
 0001:0005e7e0       _CG_DrawAreaChat           1005f7e0 f   cg_newdraw.obj
 0001:0005e840       _CG_DrawKiller             1005f840 f   cg_newdraw.obj
 0001:0005e8f0       _CG_DrawCapFragLimit       1005f8f0 f   cg_newdraw.obj
 0001:0005e980       _CG_Draw1stPlace           1005f980 f   cg_newdraw.obj
 0001:0005e9f0       _CG_Draw2ndPlace           1005f9f0 f   cg_newdraw.obj
 0001:0005ea60       _CG_BuildPlacementScoreValue 1005fa60 f   cg_newdraw.obj
 0001:0005eb30       _CG_DrawPlacementScoreLine 1005fb30 f   cg_newdraw.obj
 0001:0005edf0       _CG_Draw1stPlaceScore      1005fdf0 f   cg_newdraw.obj
 0001:0005efd0       _CG_Draw2ndPlaceScore      1005ffd0 f   cg_newdraw.obj
 0001:0005f2a0       _CG_DrawGameStatus         100602a0 f   cg_newdraw.obj
 0001:0005f300       _CG_DrawGameType           10060300 f   cg_newdraw.obj
 0001:0005f360       _CG_DrawAdvert             10060360 f   cg_newdraw.obj
 0001:0005f400       _CG_ShouldCaptureSpectatorUi 10060400 f   cg_newdraw.obj
 0001:0005f470       _CG_BrowserDisplayCursorType 10060470 f   cg_newdraw.obj
 0001:0005f490       _CG_BrowserDisplayMouseMove 10060490 f   cg_newdraw.obj
 0001:0005f4b0       _CG_BrowserCorrectedTextRect 100604b0 f   cg_newdraw.obj
 0001:0005f540       _CG_BrowserOverActiveItem  10060540 f   cg_newdraw.obj
 0001:0005f690       _CG_GetFocusedBrowserOverlay 10060690 f   cg_newdraw.obj
 0001:0005f6a0       _CG_BrowserHandleKey       100606a0 f   cg_newdraw.obj
 0001:0005f770       _CG_BrowserDisplayHandleKey 10060770 f   cg_newdraw.obj
 0001:0005f7d0       _CG_CloseRetailCommandCaptureOverlay 100607d0 f   cg_newdraw.obj
 0001:0005f840       _CG_RefreshDisplayContext  10060840 f   cg_newdraw.obj
 0001:0005f930       _CG_HandleHudBindingCommand 10060930 f   cg_newdraw.obj
 0001:0005fa00       _CrossProduct              10060a00 f   cg_marks.obj
 0001:00060650       _CG_BuildMarkAxis          10061650 f   cg_marks.obj
 0001:000607e0       _VectorLength              100617e0 f   cg_particles.obj
 0001:00060870       _Distance                  10061870 f   cg_particles.obj
 0001:00061500       _CG_GetParticlePaletteColor 10062500 f   cg_particles.obj
 0001:000617ac       $LN14                      100627ac     cg_particles.obj
 0001:000617d0       _CG_AddParticleToScene     100627d0 f   cg_particles.obj
 0001:00067cf0       _CG_ParticleSnow           10068cf0 f   cg_particles.obj
 0001:000680c0       _CG_ParticleBubble         100690c0 f   cg_particles.obj
 0001:00068580       _VectorInverse             10069580 f   cg_players.obj
 0001:00068600       _CrossProduct              10069600 f   cg_players.obj
 0001:0006ac80       _CG_ParseAnimationFile     1006bc80 f   cg_players.obj
 0001:0006b730       _CG_FileExists             1006c730 f   cg_players.obj
 0001:0006b760       _CG_FindClientModelFile    1006c760 f   cg_players.obj
 0001:0006b9a0       _CG_FindClientHeadFile     1006c9a0 f   cg_players.obj
 0001:0006bc00       _CG_RegisterClientSkin     1006cc00 f   cg_players.obj
 0001:0006bd70       _CG_UpdateClientHeadOffset 1006cd70 f   cg_players.obj
 0001:0006bf40       _CG_RegisterClientModelname 1006cf40 f   cg_players.obj
 0001:0006c4f0       _CG_ColorFromString        1006d4f0 f   cg_players.obj
 0001:0006c600       _CG_DefaultTeamSkinName    1006d600 f   cg_players.obj
 0001:0006c630       _CG_NormalizeClientSkinName 1006d630 f   cg_players.obj
 0001:0006c7d0       _CG_NormalizeClientHeadSkinName 1006d7d0 f   cg_players.obj
 0001:0006c970       _CG_LoadClientInfo         1006d970 f   cg_players.obj
 0001:0006ccc0       _CG_CopyClientInfoModel    1006dcc0 f   cg_players.obj
 0001:0006ce30       _CG_ScanForExistingClientInfo 1006de30 f   cg_players.obj
 0001:0006cf90       _CG_SetDeferredClientInfo  1006df90 f   cg_players.obj
 0001:0006d190       _CG_GetLocalPlayerTeam     1006e190 f   cg_players.obj
 0001:0006d1f0       _CG_IsFriendlyClientTeam   1006e1f0 f   cg_players.obj
 0001:0006d240       _CG_GetClientOverrideContext 1006e240 f   cg_players.obj
 0001:0006d2a0       _CG_ShouldUseTeamOverrides 1006e2a0 f   cg_players.obj
 0001:0006d2c0       _CG_HexCharToInt           1006e2c0 f   cg_players.obj
 0001:0006d320       _CG_ParseOverrideColorString 1006e320 f   cg_players.obj
 0001:0006d640       _CG_ParseForcedSkinString  1006e640 f   cg_players.obj
 0001:0006d690       _CG_ParseForcedModelString 1006e690 f   cg_players.obj
 0001:0006d770       _CG_ApplyClientModelOverrides 1006e770 f   cg_players.obj
 0001:0006daa0       _CG_ApplyClientColorOverrides 1006eaa0 f   cg_players.obj
 0001:0006e090       _CG_ShouldTintDeadBody     1006f090 f   cg_players.obj
 0001:0006e0f0       _CG_GetPlayerColorScale    1006f0f0 f   cg_players.obj
 0001:0006e160       _CG_SetScaledPackedRGBA    1006f160 f   cg_players.obj
 0001:0006e240       _CG_SetScaledShaderRGBA    1006f240 f   cg_players.obj
 0001:0006e2f0       _CG_ApplyDeadBodyTint      1006f2f0 f   cg_players.obj
 0001:0006e320       _CG_ParseSteamIdString     1006f320 f   cg_players.obj
 0001:0006e440       _CG_UpdateClientIdentity   1006f440 f   cg_players.obj
 0001:0006e490       _CG_SetRefEntityColor      1006f490 f   cg_players.obj
 0001:0006e530       _CG_ApplyPlayerColors      1006f530 f   cg_players.obj
 0001:0006e6e0       _CG_SetLerpFrameAnimation  1006f6e0 f   cg_players.obj
 0001:0006e760       _CG_RunLerpFrame           1006f760 f   cg_players.obj
 0001:0006e9f0       _CG_ClearLerpFrame         1006f9f0 f   cg_players.obj
 0001:0006ea40       _CG_PlayerAnimation        1006fa40 f   cg_players.obj
 0001:0006ebb0       _CG_SwingAngles            1006fbb0 f   cg_players.obj
 0001:0006ee00       _CG_AddPainTwitch          1006fe00 f   cg_players.obj
 0001:0006eec0       _CG_PlayerAngles           1006fec0 f   cg_players.obj
 0001:0006f550       _CG_HasteTrail             10070550 f   cg_players.obj
 0001:0006f6e0       _CG_BreathPuffs            100706e0 f   cg_players.obj
 0001:0006f9f0       _CG_DustTrail              100709f0 f   cg_players.obj
 0001:0006fc50       _CG_TrailItem              10070c50 f   cg_players.obj
 0001:0006fe60       _CG_PlayerFlag             10070e60 f   cg_players.obj
 0001:00070560       _CG_PlayerTokens           10071560 f   cg_players.obj
 0001:00070e00       _CG_PlayerPowerups         10071e00 f   cg_players.obj
 0001:000710a0       _CG_PlayerObjectiveSprite  100720a0 f   cg_players.obj
 0001:00071300       _CG_IsFrozenPlayer         10072300 f   cg_players.obj
 0001:00071370       _CG_AddFrozenPlayerShell   10072370 f   cg_players.obj
 0001:000714f0       _CG_PlayerFloatSprite      100724f0 f   cg_players.obj
 0001:00071640       _CG_PlayerSprites          10072640 f   cg_players.obj
 0001:000717d0       _CG_PlayerShadow           100727d0 f   cg_players.obj
 0001:000719f0       _CG_PlayerSplash           100729f0 f   cg_players.obj
 0001:00072410       _VectorLength              10073410 f   cg_playerstate.obj
 0001:00072e60       _CG_RespawnWeaponFromToken 10073e60 f   cg_playerstate.obj
 0001:000730a0       _CG_SelectRespawnWeapon    100740a0 f   cg_playerstate.obj
 0001:00073300       _CG_RecordCrosshairHitFeedback 10074300 f   cg_playerstate.obj
 0001:00073f10       _VectorCompare             10074f10 f   cg_predict.obj
 0001:00073f90       _VectorLength              10074f90 f   cg_predict.obj
 0001:00074c00       _CG_LocalProjectileNudge   10075c00 f   cg_predict.obj
 0001:00074ec0       _CG_UpdatePredictedRailFire 10075ec0 f   cg_predict.obj
 0001:000750d0       _CG_UpdateStepChange       100760d0 f   cg_predict.obj
 0001:00075180       _CG_UpdateClientInfoContext 10076180 f   cg_predict.obj
 0001:00075230       _CG_UseCapsuleTrace        10076230 f   cg_predict.obj
 0001:00075240       _CG_ClipMoveToEntities     10076240 f   cg_predict.obj
 0001:000755b0       _CG_TraceCapsule           100765b0 f   cg_predict.obj
 0001:00075650       _CG_InterpolatePlayerState 10076650 f   cg_predict.obj
 0001:00075840       _BG_IsRedBlueFlagItem      10076840 f   cg_predict.obj
 0001:00075890       _CG_TouchItem              10076890 f   cg_predict.obj
 0001:00075a30       _CG_TouchTriggerPrediction 10076a30 f   cg_predict.obj
 0001:000760d0       _CG_OpenJoinGameMenu       100770d0 f   cg_screen.obj
 0001:00076130       _CG_GetScreenDamageBlendShader 10077130 f   cg_screen.obj
 0001:00076160       _CG_GetScreenDamageColor   10077160 f   cg_screen.obj
 0001:00076390       _CG_SetScreenDamageEntityColor 10077390 f   cg_screen.obj
 0001:00076580       _CG_ClearJoinGameMenuCaptureState 10077580 f   cg_screen.obj
 0001:00076590       _CG_ShouldDrawJoinGameMenu 10077590 f   cg_screen.obj
 0001:00077490       _QL_GametypeHudHint        10078490 f   cg_scoreboard.obj
 0001:000774b0       _CG_UpdateHudScoreboardSummary 100784b0 f   cg_scoreboard.obj
 0001:00077660       _CG_UpdateHudScoreboardBanners 10078660 f   cg_scoreboard.obj
 0001:00077770       _CG_ScoreboardTimeSeconds  10078770 f   cg_scoreboard.obj
 0001:000777c0       _CG_ScoreboardWideScaleFactor 100787c0 f   cg_scoreboard.obj
 0001:00077800       _CG_ScoreboardWideScale    10078800 f   cg_scoreboard.obj
 0001:00077830       _CG_ScoreboardVariant      10078830 f   cg_scoreboard.obj
 0001:00077880       $LN10                      10078880     cg_scoreboard.obj
 0001:000778a0       _CG_ResetHudScoreboard     100788a0 f   cg_scoreboard.obj
 0001:00077ae0       _CG_HudScoreboardContainsClient 10078ae0 f   cg_scoreboard.obj
 0001:00077b20       _CG_AppendHudScoreboardEntry 10078b20 f   cg_scoreboard.obj
 0001:00077c40       _CG_DamagePlumPresetDescription 10078c40 f   cg_scoreboard.obj
 0001:00077c80       _CG_DamagePlumStyleDescription 10078c80 f   cg_scoreboard.obj
 0001:00077cc0       _CG_DrawForcedScoreboardTip 10078cc0 f   cg_scoreboard.obj
 0001:00077db0       _CG_DrawForcedGametypeHint 10078db0 f   cg_scoreboard.obj
 0001:00077ee0       _CG_DrawFreezeTagTips      10078ee0 f   cg_scoreboard.obj
 0001:00078040       _CG_DrawFactoryMetadata    10079040 f   cg_scoreboard.obj
 0001:00078550       _CG_FormatScoreboardTime   10079550 f   cg_scoreboard.obj
 0001:000785b0       _CG_ClientRaceTimeSeconds  100795b0 f   cg_scoreboard.obj
 0001:00078660       _CG_DrawClientScore        10079660 f   cg_scoreboard.obj
 0001:00079090       _CG_TeamScoreboard         1007a090 f   cg_scoreboard.obj
 0001:000791c0       _CG_CenterGiantLine        1007a1c0 f   cg_scoreboard.obj
 0001:00079fd0       _CG_AddToTeamChat          1007afd0 f   cg_servercmds.obj
 0001:0007a010       _CG_RemoveChatEscapeChar   1007b010 f   cg_servercmds.obj
 0001:0007a080       _CG_ClearScoreStatsCache   1007b080 f   cg_servercmds.obj
 0001:0007a0a0       _CG_ClearTeamScoreStatsCache 1007b0a0 f   cg_servercmds.obj
 0001:0007a0c0       _CG_ClearClanArenaStatsCache 1007b0c0 f   cg_servercmds.obj
 0001:0007a0e0       _CG_ClearTDMStatsCache     1007b0e0 f   cg_servercmds.obj
 0001:0007a100       _CG_ClearCTFStatsCache     1007b100 f   cg_servercmds.obj
 0001:0007a120       _CG_CopyDefaultPmoveSettings 1007b120 f   cg_servercmds.obj
 0001:0007a170       _CG_SkipPmoveWhitespace    1007b170 f   cg_servercmds.obj
 0001:0007a1d0       _CG_ExpectPmoveChar        1007b1d0 f   cg_servercmds.obj
 0001:0007a230       _CG_ParsePmoveJsonString   1007b230 f   cg_servercmds.obj
 0001:0007a320       _CG_ParsePmoveJsonBool     1007b320 f   cg_servercmds.obj
 0001:0007a3c0       _CG_ParsePmoveJsonFloat    1007b3c0 f   cg_servercmds.obj
 0001:0007a430       _CG_ParsePmoveJsonInt      1007b430 f   cg_servercmds.obj
 0001:0007a4a0       _CG_SkipPmoveJsonValue     1007b4a0 f   cg_servercmds.obj
 0001:0007a710       _CG_ParsePmoveWeaponReloadTimes 1007b710 f   cg_servercmds.obj
 0001:0007a840       _CG_ParsePmoveSettingsPayload 1007b840 f   cg_servercmds.obj
 0001:0007b670       _CG_ValidOrder             1007c670 f   cg_servercmds.obj
 0001:0007b6d0       _CG_ParseRaceInit          1007c6d0 f   cg_servercmds.obj
 0001:0007b760       _CG_ParseRaceInfo          1007c760 f   cg_servercmds.obj
 0001:0007b830       _CG_ParseAdminRacePoint    1007c830 f   cg_servercmds.obj
 0001:0007b9c0       _CG_ParseRaceScores        1007c9c0 f   cg_servercmds.obj
 0001:0007bc30       _CG_ParseAcc               1007cc30 f   cg_servercmds.obj
 0001:0007bce0       _CG_DebugAppendIntCsv      1007cce0 f   cg_servercmds.obj
 0001:0007bda0       _CG_DebugAppendFloatCsv    1007cda0 f   cg_servercmds.obj
 0001:0007be60       _CG_DebugDumpPlacementOwnerdrawScoreStats 1007ce60 f   cg_servercmds.obj
 0001:0007c2f0       _CG_DebugDumpTeamOwnerdrawScoreStats 1007d2f0 f   cg_servercmds.obj
 0001:0007c430       _CG_ResetParsedScoreboardCaches 1007d430 f   cg_servercmds.obj
 0001:0007c470       _CG_FinalizeParsedScoreRow 1007d470 f   cg_servercmds.obj
 0001:0007c500       _CG_ParseGenericScoreRows  1007d500 f   cg_servercmds.obj
 0001:0007c7d0       _CG_ParseRetailTdmScoreRows 1007d7d0 f   cg_servercmds.obj
 0001:0007ca70       _CG_ParseRetailCtfScoreRows 1007da70 f   cg_servercmds.obj
 0001:0007cd40       _CG_ParseRetailFreezeScoreRows 1007dd40 f   cg_servercmds.obj
 0001:0007d010       _CG_ParseRetailTeamScoreHeader 1007e010 f   cg_servercmds.obj
 0001:0007d100       _CG_ParseScoreStats        1007e100 f   cg_servercmds.obj
 0001:0007d610       _CG_ParseTeamScoreStats    1007e610 f   cg_servercmds.obj
 0001:0007d720       _CG_ParseClanArenaStats    1007e720 f   cg_servercmds.obj
 0001:0007d890       _CG_ParseTDMStats          1007e890 f   cg_servercmds.obj
 0001:0007d960       _CG_ParseCTFStats          1007e960 f   cg_servercmds.obj
 0001:0007da30       _CG_ParseKeyMask           1007ea30 f   cg_servercmds.obj
 0001:0007daa0       _CG_ParseKeyMasks          1007eaa0 f   cg_servercmds.obj
 0001:0007dbd0       _CG_ParseCompactScores     1007ebd0 f   cg_servercmds.obj
 0001:0007de20       _CG_ParseScores            1007ee20 f   cg_servercmds.obj
 0001:0007deb0       _CG_ParseDuelScores        1007eeb0 f   cg_servercmds.obj
 0001:0007e4a0       _CG_ParseTdmScores         1007f4a0 f   cg_servercmds.obj
 0001:0007e550       _CG_ParseCtfScores         1007f550 f   cg_servercmds.obj
 0001:0007e600       _CG_ParseFreezeScores      1007f600 f   cg_servercmds.obj
 0001:0007e6b0       _CG_ParseClanArenaScores   1007f6b0 f   cg_servercmds.obj
 0001:0007ea50       _CG_ParseRedRoverScores    1007fa50 f   cg_servercmds.obj
 0001:0007edf0       _CG_ParseTeamInfo          1007fdf0 f   cg_servercmds.obj
 0001:0007ef30       _CG_SetTeamNameCvar        1007ff30 f   cg_servercmds.obj
 0001:0007f000       _CG_ParseDisableLoadoutConfigString 10080000 f   cg_servercmds.obj
 0001:0007f150       _CG_SetGameInfoCvars       10080150 f   cg_servercmds.obj
 0001:0007f280       _CG_NormalizeMapFilename   10080280 f   cg_servercmds.obj
 0001:0007f2f0       _CG_ParseWarmup            100802f0 f   cg_servercmds.obj
 0001:0007f3a0       _CG_ResetPlayerAppearanceState 100803a0 f   cg_servercmds.obj
 0001:0007f400       _CG_ParsePlayerAppearanceConfigString 10080400 f   cg_servercmds.obj
 0001:0007f7b0       _CG_ParseWeaponReloadConfigString 100807b0 f   cg_servercmds.obj
 0001:0007f890       _CG_InfoIntForMatchKey     10080890 f   cg_servercmds.obj
 0001:0007f8e0       _CG_ResetMatchStateFields  100808e0 f   cg_servercmds.obj
 0001:0007fa30       _CG_ParseMatchFactoryConfig 10080a30 f   cg_servercmds.obj
 0001:0007fb90       _CG_ParseTimeoutConfigStrings 10080b90 f   cg_servercmds.obj
 0001:0007fd00       _CG_ParseTeamCountConfigStrings 10080d00 f   cg_servercmds.obj
 0001:0007fdd0       _CG_ParseMatchState        10080dd0 f   cg_servercmds.obj
 0001:00080130       _CG_ParseSuddenDeathStatus 10081130 f   cg_servercmds.obj
 0001:000801a0       _CG_ParseReadyUpStatus     100811a0 f   cg_servercmds.obj
 0001:00080200       _CG_ParseWarmupReadyStatus 10081200 f   cg_servercmds.obj
 0001:00080310       _CG_RequestForcedAtmosphere 10081310 f   cg_servercmds.obj
 0001:000803b0       _CG_ParseForcedCosmetics   100813b0 f   cg_servercmds.obj
 0001:00080610       _CG_ParseFreezeTipConfigstrings 10081610 f   cg_servercmds.obj
 0001:00080780       _CG_ParseFactoryMetadata   10081780 f   cg_servercmds.obj
 0001:00080820       _CG_ParseCustomSettingsConfigString 10081820 f   cg_servercmds.obj
 0001:000808a0       _CG_ParseServerSettingsInfoConfigStrings 100818a0 f   cg_servercmds.obj
 0001:00080a30       _CG_ParseEnableBreathConfigString 10081a30 f   cg_servercmds.obj
 0001:00080aa0       _CG_SetTeamNameFromConfigString 10081aa0 f   cg_servercmds.obj
 0001:00080b30       _CG_ConfigStringModified   10081b30 f   cg_servercmds.obj
 0001:000810e0       _CG_ParseBufferedChat      100820e0 f   cg_servercmds.obj
 0001:000811a0       _CG_ParseClearChat         100821a0 f   cg_servercmds.obj
 0001:000811b0       _CG_ParseUiPriv            100821b0 f   cg_servercmds.obj
 0001:000811d0       _CG_MapRestart             100821d0 f   cg_servercmds.obj
 0001:00082230       _CG_HasActiveComplaintPrompt 10083230 f   cg_servercmds.obj
 0001:00082270       _CG_IsServerChatClientMuted 10083270 f   cg_servercmds.obj
 0001:000822e0       _CG_ResolveServerChatText  100832e0 f   cg_servercmds.obj
 0001:00082350       _CG_ParseCenterPrint       10083350 f   cg_servercmds.obj
 0001:000823c0       _CG_ParsePrint             100833c0 f   cg_servercmds.obj
 0001:00082480       _CG_ParseChat              10083480 f   cg_servercmds.obj
 0001:00082560       _CG_ParseTeamChat          10083560 f   cg_servercmds.obj
 0001:00082610       _CG_ParseClearSounds       10083610 f   cg_servercmds.obj
 0001:00082620       _CG_ParsePriv              10083620 f   cg_servercmds.obj
 0001:00082640       _CG_ParsePStats            10083640 f   cg_servercmds.obj
 0001:00082650       _CG_ParseComplaint         10083650 f   cg_servercmds.obj
 0001:000826c0       _CG_SetVoteUIActive        100836c0 f   cg_servercmds.obj
 0001:000826f0       _CG_ParseADScoreHistory    100836f0 f   cg_servercmds.obj
 0001:00082790       _CG_ParseADScores          10083790 f   cg_servercmds.obj
 0001:000827b0       _CG_ParseScreenshot        100837b0 f   cg_servercmds.obj
 0001:000827f0       _CG_ParseRecord            100837f0 f   cg_servercmds.obj
 0001:00082830       _CG_ParseStopRecord        10083830 f   cg_servercmds.obj
 0001:00082850       _CG_ParsePlayMusic         10083850 f   cg_servercmds.obj
 0001:00082880       _CG_ParseStopMusic         10083880 f   cg_servercmds.obj
 0001:00082890       _CG_ParsePlaySound         10083890 f   cg_servercmds.obj
 0001:000828c0       _CG_ServerCommandCompatibility 100838c0 f   cg_servercmds.obj
 0001:00082b50       _CG_ServerCommand          10083b50 f   cg_servercmds.obj
 0001:00083250       _CG_ResetEntity            10084250 f   cg_snapshot.obj
 0001:00083370       _CG_TransitionEntity       10084370 f   cg_snapshot.obj
 0001:000833d0       _CG_RefreshClientInfoContext 100843d0 f   cg_snapshot.obj
 0001:000834d0       _CG_TransitionSnapshot     100844d0 f   cg_snapshot.obj
 0001:000836c0       _CG_SetNextSnap            100846c0 f   cg_snapshot.obj
 0001:00083830       _CG_ReadNextSnapshot       10084830 f   cg_snapshot.obj
 0001:00084cf0       _CG_InvokeImport           10085cf0 f   cg_syscalls.obj
 0001:00084de0       _CG_MapNativeImport        10085de0 f   cg_syscalls.obj
 0001:00085254       $LN120                     10086254     cg_syscalls.obj
 0001:00085430       _CG_NativeImportSyscall    10086430 f   cg_syscalls.obj
 0001:00085510       _CG_GetNativeImportFunction 10086510 f   cg_syscalls.obj
 0001:00085cb0       _CG_SetZoomState           10086cb0 f   cg_view.obj
 0001:00085ce0       _CG_ResetViewAngleFilter   10086ce0 f   cg_view.obj
 0001:00085d60       _CG_FilterViewAngles       10086d60 f   cg_view.obj
 0001:00086010       _CG_UpdateSpectatorCvar    10087010 f   cg_view.obj
 0001:000860a0       _CG_GetTargetAspectDimensions 100870a0 f   cg_view.obj
 0001:000861b0       _CG_CalcHorPlusFov         100871b0 f   cg_view.obj
 0001:00086310       _CG_CalcAspectAdjustedFovFromVertical 10087310 f   cg_view.obj
 0001:000863d0       _CG_CalcSmartCameraTraceRange 100873d0 f   cg_view.obj
 0001:000865a0       _CG_CalcVrect              100875a0 f   cg_view.obj
 0001:00086690       _CG_OffsetThirdPersonViewSpecial 10087690 f   cg_view.obj
 0001:00086820       _CG_OffsetThirdPersonView  10087820 f   cg_view.obj
 0001:00087510       _CG_StepOffset             10088510 f   cg_view.obj
 0001:00087570       _CG_OffsetFirstPersonView  10088570 f   cg_view.obj
 0001:00087d60       _CG_ViewFilterAverage      10088d60 f   cg_view.obj
 0001:00087de0       _CG_CalcZoomSensitivityScale 10088de0 f   cg_view.obj
 0001:00087f00       _CG_ClearRewardStack       10088f00 f   cg_view.obj
 0001:00087f50       _CG_ClearBufferedSounds    10088f50 f   cg_view.obj
 0001:00087ff0       _CG_CalcFov                10088ff0 f   cg_view.obj
 0001:000883b0       _CG_CalcViewValues         100893b0 f   cg_view.obj
 0001:000887e0       _CG_PowerupTimerSounds     100897e0 f   cg_view.obj
 0001:00088890       _CG_PlayBufferedSounds     10089890 f   cg_view.obj
 0001:00088970       _CG_RunPendingFollowKiller 10089970 f   cg_view.obj
 0001:000889e0       _CG_DrawBotAIDebugInfo     100899e0 f   cg_view.obj
 0001:00088be0       _VectorLength              10089be0 f   cg_weapons.obj
 0001:00088c70       _Distance                  10089c70 f   cg_weapons.obj
 0001:00088d30       _CrossProduct              10089d30 f   cg_weapons.obj
 0001:00089f30       $LN43                      1008af30     cg_weapons.obj
 0001:0008ab6c       $LN47                      1008bb6c     cg_weapons.obj
 0001:0008b088       $LN8                       1008c088     cg_weapons.obj
 0001:0008b090       $LN7                       1008c090     cg_weapons.obj
 0001:0008e450       _CG_GetStoredPredictedBeam 1008f450 f   cg_weapons.obj
 0001:0008e660       _CG_GetLocalPlayerWeaponTeam 1008f660 f   cg_weapons.obj
 0001:0008e6c0       _CG_ClientInfoToClientNum  1008f6c0 f   cg_weapons.obj
 0001:0008e700       _CG_CopyBaseWeaponColor    1008f700 f   cg_weapons.obj
 0001:0008e820       _CG_PackWeaponColorBytes   1008f820 f   cg_weapons.obj
 0001:0008e8e0       _CG_ShouldOverrideWeaponColor 1008f8e0 f   cg_weapons.obj
 0001:0008e960       _CG_ResolveClientWeaponColor 1008f960 f   cg_weapons.obj
 0001:0008ea40       _CG_ResolveClientWeaponColorBytes 1008fa40 f   cg_weapons.obj
 0001:0008ea90       _CG_GetViewWeaponFovOffset 1008fa90 f   cg_weapons.obj
 0001:0008ead0       _CG_GetLocalRailThirdPersonVerticalOffset 1008fad0 f   cg_weapons.obj
 0001:0008eb70       _CG_AdjustRailTrailStart   1008fb70 f   cg_weapons.obj
 0001:0008f1e0       _CG_GetDamageThroughProbeDistance 100901e0 f   cg_weapons.obj
 0001:0008f240       _CG_GetWeaponReloadTime    10090240 f   cg_weapons.obj
 0001:0008f2a0       _CG_MachineGunEjectBrass   100902a0 f   cg_weapons.obj
 0001:0008fa60       _CG_ShotgunEjectBrass      10090a60 f   cg_weapons.obj
 0001:000902b0       _CG_NailgunEjectBrass      100912b0 f   cg_weapons.obj
 0001:00090610       _CG_SpawnRailRing          10091610 f   cg_weapons.obj
 0001:00090900       _CG_RocketTrail            10091900 f   cg_weapons.obj
 0001:00090b00       _CG_NailTrail              10091b00 f   cg_weapons.obj
 0001:00090d00       _CG_PlasmaTrail            10091d00 f   cg_weapons.obj
 0001:00091650       _CG_GrenadeTrail           10092650 f   cg_weapons.obj
 0001:00091670       _CG_MapTorsoToWeaponFrame  10092670 f   cg_weapons.obj
 0001:00091760       _CG_CalculateWeaponPosition 10092760 f   cg_weapons.obj
 0001:00091ab0       _CG_LightningActiveStyleIndex 10092ab0 f   cg_weapons.obj
 0001:00091af0       _CG_LightningCurrentShader 10092af0 f   cg_weapons.obj
 0001:00091b30       _CG_LightningSegmentCount  10092b30 f   cg_weapons.obj
 0001:00091b60       _CG_SubmitLightningBeams   10092b60 f   cg_weapons.obj
 0001:00091c00       _CG_CanDrawLightningImpact 10092c00 f   cg_weapons.obj
 0001:00091c70       _CG_DrawLightningImpact    10092c70 f   cg_weapons.obj
 0001:00091e50       _CG_LightningBolt          10092e50 f   cg_weapons.obj
 0001:00092760       _CG_SnapVectorTowards      10093760 f   cg_weapons.obj
 0001:000927e0       _CG_BuildPredictedBeam     100937e0 f   cg_weapons.obj
 0001:00092810       _CG_SpawnRailTrail         10093810 f   cg_weapons.obj
 0001:00092930       _CG_MachinegunSpinAngle    10093930 f   cg_weapons.obj
 0001:00092aa0       _CG_AddWeaponWithPowerups  10093aa0 f   cg_weapons.obj
 0001:00092b30       _CG_DrawWeaponSelectStrip  10093b30 f   cg_weapons.obj
 0001:00092da0       _CG_ShouldDrawFullWeaponBarEntry 10093da0 f   cg_weapons.obj
 0001:00092e00       _CG_ShouldDrawLegacyWeaponBarEntry 10093e00 f   cg_weapons.obj
 0001:00092e70       _CG_CountLegacyWeaponBarEntries 10093e70 f   cg_weapons.obj
 0001:00092ec0       _CG_GetLegacyWeaponBarLayout 10093ec0 f   cg_weapons.obj
 0001:00093030       _CG_GetLegacyWeaponBarAmmoColor 10094030 f   cg_weapons.obj
 0001:000931b0       _CG_DrawLegacyWeaponBarAmmo 100941b0 f   cg_weapons.obj
 0001:00093310       _CG_DrawLegacyWeaponSelect 10094310 f   cg_weapons.obj
 0001:000934c0       _CG_DrawMenuHudWeaponSelect 100944c0 f   cg_weapons.obj
 0001:00093510       _CG_WeaponSelectable       10094510 f   cg_weapons.obj
 0001:00093590       _CG_CycleWeaponSelection   10094590 f   cg_weapons.obj
 0001:00093650       _CG_SelectHighestWeapon    10094650 f   cg_weapons.obj
 0001:000936b0       _CG_ShotgunPellet          100946b0 f   cg_weapons.obj
 0001:00093880       _CG_ShotgunPattern         10094880 f   cg_weapons.obj
 0001:000949e0       _CG_CalcMuzzlePoint        100959e0 f   cg_weapons.obj
 0001:000950a0       $$000000                   100960a0     MSVCRTD:chkstk.obj
 0001:000950d0       $$000000                   100960d0     MSVCRTD:ftol2.obj
 0001:00095190       $$000000                   10096190     MSVCRTD:llmul.obj
 0001:000951d0       $$000000                   100961d0     MSVCRTD:ulldiv.obj
 0001:00095240       $$000000                   10096240     MSVCRTD:ullshr.obj
 0001:00095260       ?dllmain_crt_dispatch@@YGHQAUHINSTANCE__@@KQAX@Z 10096260 f   MSVCRTD:dll_dllmain.obj
 0001:000952cc       $LN11                      100962cc     MSVCRTD:dll_dllmain.obj
 0001:000952e0       ?dllmain_crt_process_attach@@YAHQAUHINSTANCE__@@QAX@Z 100962e0 f   MSVCRTD:dll_dllmain.obj
 0001:00095450       ?dllmain_crt_process_detach@@YAH_N@Z 10096450 f   MSVCRTD:dll_dllmain.obj
 0001:00095530       ?dllmain_dispatch@@YAHQAUHINSTANCE__@@KQAX@Z 10096530 f   MSVCRTD:dll_dllmain.obj
 0001:000956c0       ?dllmain_raw@@YGHQAUHINSTANCE__@@KQAX@Z 100966c0 f   MSVCRTD:dll_dllmain.obj
 0001:00095a30       ___get_entropy             10096a30 f   MSVCRTD:gs_support.obj
 0001:00095c60       ?find_pe_section@@YAPAU_IMAGE_SECTION_HEADER@@QAEI@Z 10096c60 f   MSVCRTD:utility.obj
 0001:00095d00       ?is_potentially_valid_image_base@@YA_NQAX@Z 10096d00 f   MSVCRTD:utility.obj
 0002:000002f4       _bg_weaponMaxAmmo          100982f4     bg_misc.obj
 0002:00000330       _bg_weaponToItemTag        10098330     bg_misc.obj
 0002:0000036c       _bg_itemTagToWeapon        1009836c     bg_misc.obj
 0002:000003a8       _bg_holdableToItemTag      100983a8     bg_misc.obj
 0002:000003c0       _bg_itemTagToHoldable      100983c0     bg_misc.obj
 0002:000003dc       _bg_retailWeaponNames      100983dc     bg_misc.obj
 0002:00000460       _pm_defaultSettings        10098460     bg_pmove.obj
 0002:00000598       _pm_retailDefaultTuning    10098598     bg_pmove.obj
 0002:000005b8       _pm_retailAirControlTuning 100985b8     bg_pmove.obj
 0002:00000730       _g_bindCount               10098730     ui_shared.obj
 0002:00000738       _uiLegacyFontMap           10098738     ui_shared.obj
 0002:00000828       _uiSliderColorPalette      10098828     ui_shared.obj
 0002:000009f0       _cg_retailCommandColorPalette 100989f0     cg_consolecmds.obj
 0002:00000a58       ?powerups@?1??CG_TeammatePOIIconCount@@9@9 10098a58     cg_draw.obj
 0002:00000a78       ?powerups@?1??CG_DrawTeammatePOIIcons@@9@9 10098a78     cg_draw.obj
 0002:00000a98       ?speedFillColor@?1??CG_DrawSpeedometer@@9@9 10098a98     cg_draw.obj
 0002:00000aa8       ?speedOverflowColor@?1??CG_DrawSpeedometer@@9@9 10098aa8     cg_draw.obj
 0002:00000ab8       ?speedBackColor@?1??CG_DrawSpeedometer@@9@9 10098ab8     cg_draw.obj
 0002:00000ac8       ?powerups@?1??CG_TeamInfoCarryIcon@@9@9 10098ac8     cg_draw.obj
 0002:00000ae8       ?builtInColors@?1??CG_ApplyCrosshairHitFeedback@@9@9 10098ae8     cg_draw.obj
 0002:00000d78       _loadingBannerColor        10098d78     cg_info.obj
 0002:00000d88       _loadingPanelColor         10098d88     cg_info.obj
 0002:00000d98       _loadingProgressFilledColor 10098d98     cg_info.obj
 0002:00000da8       _loadingProgressEmptyColor 10098da8     cg_info.obj
 0002:00000db8       _loadingGametypeNames      10098db8     cg_info.obj
 0002:00000e78       ?filename@?1??CG_CacheCountryFlags@@9@9 10098e78     cg_main.obj
 0002:00000e88       _cgRetailWeaponTokens      10098e88     cg_main.obj
 0002:00000fc8       _cg_defaultDeadBodyColor   10098fc8     cg_main.obj
 0002:00000fd8       _cg_crosshairPalette       10098fd8     cg_main.obj
 0002:0000111c       ?exts@?1??CG_RegisterRetailAnnouncerClip@@9@9 1009911c     cg_main.obj
 0002:00001124       ?exts@?1??CG_RegisterAnnouncerClip@@9@9 10099124     cg_main.obj
 0002:0000112c       ?folders@?1??CG_RegisterRaceCueSound@@9@9 1009912c     cg_main.obj
 0002:00001134       ?prefixes@?1??CG_RegisterRaceCueSound@@9@9 10099134     cg_main.obj
 0002:0000113c       ?exts@?1??CG_RegisterRaceCueSound@@9@9 1009913c     cg_main.obj
 0002:00001144       ?domCapNames@?BB@??CG_RegisterGraphics@@9@9 10099144     cg_main.obj
 0002:00001158       ?domCapDistressNames@?BB@??CG_RegisterGraphics@@9@9 10099158     cg_main.obj
 0002:0000116c       ?domDefNames@?BB@??CG_RegisterGraphics@@9@9 1009916c     cg_main.obj
 0002:00001180       ?domDefDistressNames@?BB@??CG_RegisterGraphics@@9@9 10099180     cg_main.obj
 0002:00001198       _cgRetailSupplementalMenuFiles 10099198     cg_main.obj
 0002:00001248       _cgKeyIconDefs             10099248     cg_newdraw.obj
 0002:00001260       _cgStartingWeaponIcons     10099260     cg_newdraw.obj
 0002:000012d0       _cgServerSettingsWeaponIcons 100992d0     cg_newdraw.obj
 0002:00001338       _cgVerticalAccWeaponOrder  10099338     cg_newdraw.obj
 0002:00001368       _cgTeamPickupSummaryEntries 10099368     cg_newdraw.obj
 0002:00001430       _shaderAnimCounts          10099430     cg_particles.obj
 0002:000014b0       _shaderAnimSTRatio         100994b0     cg_particles.obj
 0002:000015b0       _ql_gametypeHudHints       100995b0     cg_scoreboard.obj
 0002:000015e4       _ql_freezeHudTips          100995e4     cg_scoreboard.obj
 0002:000015f8       _ql_gametypeTutorials      100995f8     cg_scoreboard.obj
 0002:00001638       _validOrders               10099638     cg_servercmds.obj
 0002:00001680       _numValidOrders            10099680     cg_servercmds.obj
 0002:00001684       _cg_retailWeaponReloadOrder 10099684     cg_servercmds.obj
 0002:000016bc       _cg_retailAccuracyCommandOrder 100996bc     cg_servercmds.obj
 0002:000016f8       _cg_retailDisableLoadoutTokens 100996f8     cg_servercmds.obj
 0002:00001770       _cg_retailMapAliases       10099770     cg_servercmds.obj
 0002:000018f8       _cgRetailTdmTeamStatOrder  100998f8     cg_servercmds.obj
 0002:00001930       _cgRetailCtfTeamStatOrder  10099930     cg_servercmds.obj
 0002:00001974       _cg_retailBlankGameInfoLines 10099974     cg_servercmds.obj
 0002:0000198c       _cg_retailTrainingGameInfoLines 1009998c     cg_servercmds.obj
 0002:000019a4       _cgScoreStatFragWeapons    100999a4     cg_servercmds.obj
 0002:000019d8       _cg_retailGameInfoLines    100999d8     cg_servercmds.obj
 0002:00001b10       _cgScoreStatAccuracyWeapons 10099b10     cg_servercmds.obj
 0002:00001b40       _cgCAStatWeapons           10099b40     cg_servercmds.obj
 0002:00001b78       ?cgBotDebugKeys@?1??CG_DrawBotAIDebugInfo@@9@9 10099b78     cg_view.obj
 0002:00001bb0       ?cgBotDebugLabels@?1??CG_DrawBotAIDebugInfo@@9@9 10099bb0     cg_view.obj
 0002:00001c20       _cg_lightningStyleDefs     10099c20     cg_weapons.obj
 0002:00001c48       ?raisedModels@?1??CG_GetLocalRailThirdPersonVerticalOffset@@9@9 10099c48     cg_weapons.obj
 0002:00001d00       _GS_ExceptionPointers      10099d00     MSVCRTD:gs_report.obj
 0002:000020d0       __sehtable$?dllmain_crt_process_attach@@YAHQAUHINSTANCE__@@QAX@Z 1009a0d0     MSVCRTD:dll_dllmain.obj
 0002:000020f0       __sehtable$?dllmain_crt_process_detach@@YAH_N@Z 1009a0f0     MSVCRTD:dll_dllmain.obj
 0002:00002110       __sehtable$?dllmain_dispatch@@YAHQAUHINSTANCE__@@KQAX@Z 1009a110     MSVCRTD:dll_dllmain.obj
 0002:00002130       __sehtable$___scrt_is_nonwritable_in_current_image 1009a130     MSVCRTD:utility.obj
 0002:00002150       .edata                     1009a150     cgamex86.exp
 0002:00002178       rgpv                       1009a178     cgamex86.exp
 0002:00002180       rgszName                   1009a180     cgamex86.exp
 0002:00002188       rgwOrd                     1009a188     cgamex86.exp
 0002:0000218c       szName                     1009a18c     cgamex86.exp
 0002:00002199       $N00001                    1009a199     cgamex86.exp
 0002:000021a2       $N00002                    1009a1a2     cgamex86.exp
 0002:00002372       .idata$6                   1009a372     vcruntimed:VCRUNTIME140D.dll
 0002:00002574       .idata$6                   1009a574     ucrtd:ucrtbased.dll
 0002:000026cc       .idata$6                   1009a6cc     kernel32:KERNEL32.dll
 0003:00000000       $SG16384                   1009b000     bg_misc.obj
 0003:00000008       $SG16385                   1009b008     bg_misc.obj
 0003:00000018       $SG16386                   1009b018     bg_misc.obj
 0003:00000030       $SG16387                   1009b030     bg_misc.obj
 0003:00000040       $SG16388                   1009b040     bg_misc.obj
 0003:00000054       $SG16389                   1009b054     bg_misc.obj
 0003:00000064       $SG16390                   1009b064     bg_misc.obj
 0003:00000074       $SG16391                   1009b074     bg_misc.obj
 0003:00000080       $SG16392                   1009b080     bg_misc.obj
 0003:0000008c       $SG16393                   1009b08c     bg_misc.obj
 0003:00000d08       $SG15405                   1009bd08     bg_misc.obj
 0003:00000d10       $SG15406                   1009bd10     bg_misc.obj
 0003:00000d1c       $SG15407                   1009bd1c     bg_misc.obj
 0003:00000d28       $SG15408                   1009bd28     bg_misc.obj
 0003:00000d30       $SG15409                   1009bd30     bg_misc.obj
 0003:00000d44       $SG15410                   1009bd44     bg_misc.obj
 0003:00000d54       $SG15411                   1009bd54     bg_misc.obj
 0003:00000d64       $SG15412                   1009bd64     bg_misc.obj
 0003:00000d6c       $SG15413                   1009bd6c     bg_misc.obj
 0003:00000d78       $SG15414                   1009bd78     bg_misc.obj
 0003:00000d80       $SG15415                   1009bd80     bg_misc.obj
 0003:00000d90       $SG15416                   1009bd90     bg_misc.obj
 0003:00000d98       $SG15417                   1009bd98     bg_misc.obj
 0003:00000da8       $SG15418                   1009bda8     bg_misc.obj
 0003:00000db4       $SG15419                   1009bdb4     bg_misc.obj
 0003:00000dc8       $SG15577                   1009bdc8     bg_misc.obj
 0003:00000ddc       $SG15578                   1009bddc     bg_misc.obj
 0003:00000df4       $SG15579                   1009bdf4     bg_misc.obj
 0003:00000e14       $SG15580                   1009be14     bg_misc.obj
 0003:00000e3c       $SG15581                   1009be3c     bg_misc.obj
 0003:00000e50       $SG15582                   1009be50     bg_misc.obj
 0003:00000e5c       $SG15585                   1009be5c     bg_misc.obj
 0003:00000e70       $SG15586                   1009be70     bg_misc.obj
 0003:00000e88       $SG15587                   1009be88     bg_misc.obj
 0003:00000eac       $SG15588                   1009beac     bg_misc.obj
 0003:00000ec0       $SG15589                   1009bec0     bg_misc.obj
 0003:00000ed0       $SG15592                   1009bed0     bg_misc.obj
 0003:00000ee0       $SG15593                   1009bee0     bg_misc.obj
 0003:00000ef8       $SG15594                   1009bef8     bg_misc.obj
 0003:00000f1c       $SG15595                   1009bf1c     bg_misc.obj
 0003:00000f2c       $SG15596                   1009bf2c     bg_misc.obj
 0003:00000f38       $SG15599                   1009bf38     bg_misc.obj
 0003:00000f4c       $SG15600                   1009bf4c     bg_misc.obj
 0003:00000f64       $SG15601                   1009bf64     bg_misc.obj
 0003:00000f88       $SG15602                   1009bf88     bg_misc.obj
 0003:00000f9c       $SG15603                   1009bf9c     bg_misc.obj
 0003:00000fa8       $SG15606                   1009bfa8     bg_misc.obj
 0003:00000fbc       $SG15607                   1009bfbc     bg_misc.obj
 0003:00000fd8       $SG15608                   1009bfd8     bg_misc.obj
 0003:00001000       $SG15609                   1009c000     bg_misc.obj
 0003:00001028       $SG15610                   1009c028     bg_misc.obj
 0003:0000103c       $SG15611                   1009c03c     bg_misc.obj
 0003:00001048       $SG15614                   1009c048     bg_misc.obj
 0003:00001054       $SG15615                   1009c054     bg_misc.obj
 0003:00001070       $SG15616                   1009c070     bg_misc.obj
 0003:00001098       $SG15617                   1009c098     bg_misc.obj
 0003:000010c4       $SG15618                   1009c0c4     bg_misc.obj
 0003:000010d8       $SG15619                   1009c0d8     bg_misc.obj
 0003:000010e4       $SG15622                   1009c0e4     bg_misc.obj
 0003:000010f8       $SG15623                   1009c0f8     bg_misc.obj
 0003:00001114       $SG15624                   1009c114     bg_misc.obj
 0003:0000113c       $SG15625                   1009c13c     bg_misc.obj
 0003:00001164       $SG15626                   1009c164     bg_misc.obj
 0003:00001174       $SG15627                   1009c174     bg_misc.obj
 0003:00001180       $SG15630                   1009c180     bg_misc.obj
 0003:00001194       $SG15631                   1009c194     bg_misc.obj
 0003:000011b0       $SG15632                   1009c1b0     bg_misc.obj
 0003:000011d8       $SG15633                   1009c1d8     bg_misc.obj
 0003:00001200       $SG15634                   1009c200     bg_misc.obj
 0003:00001214       $SG15635                   1009c214     bg_misc.obj
 0003:00001220       $SG15638                   1009c220     bg_misc.obj
 0003:00001230       $SG15639                   1009c230     bg_misc.obj
 0003:00001248       $SG15640                   1009c248     bg_misc.obj
 0003:00001270       $SG15641                   1009c270     bg_misc.obj
 0003:00001288       $SG15642                   1009c288     bg_misc.obj
 0003:00001294       $SG15645                   1009c294     bg_misc.obj
 0003:000012a4       $SG15646                   1009c2a4     bg_misc.obj
 0003:000012bc       $SG15647                   1009c2bc     bg_misc.obj
 0003:000012e0       $SG15648                   1009c2e0     bg_misc.obj
 0003:000012f4       $SG15649                   1009c2f4     bg_misc.obj
 0003:000012fc       $SG15652                   1009c2fc     bg_misc.obj
 0003:00001310       $SG15653                   1009c310     bg_misc.obj
 0003:00001328       $SG15654                   1009c328     bg_misc.obj
 0003:00001354       $SG15655                   1009c354     bg_misc.obj
 0003:0000136c       $SG15656                   1009c36c     bg_misc.obj
 0003:00001378       $SG15659                   1009c378     bg_misc.obj
 0003:00001390       $SG15660                   1009c390     bg_misc.obj
 0003:000013a8       $SG15661                   1009c3a8     bg_misc.obj
 0003:000013d0       $SG15662                   1009c3d0     bg_misc.obj
 0003:000013e4       $SG15663                   1009c3e4     bg_misc.obj
 0003:000013f8       $SG15665                   1009c3f8     bg_misc.obj
 0003:00001440       $SG15666                   1009c440     bg_misc.obj
 0003:00001458       $SG15667                   1009c458     bg_misc.obj
 0003:00001470       $SG15668                   1009c470     bg_misc.obj
 0003:00001494       $SG15669                   1009c494     bg_misc.obj
 0003:000014a8       $SG15670                   1009c4a8     bg_misc.obj
 0003:000014b8       $SG15673                   1009c4b8     bg_misc.obj
 0003:000014cc       $SG15674                   1009c4cc     bg_misc.obj
 0003:000014e4       $SG15675                   1009c4e4     bg_misc.obj
 0003:0000150c       $SG15676                   1009c50c     bg_misc.obj
 0003:00001524       $SG15677                   1009c524     bg_misc.obj
 0003:00001534       $SG15680                   1009c534     bg_misc.obj
 0003:00001544       $SG15681                   1009c544     bg_misc.obj
 0003:0000155c       $SG15682                   1009c55c     bg_misc.obj
 0003:00001580       $SG15683                   1009c580     bg_misc.obj
 0003:00001594       $SG15684                   1009c594     bg_misc.obj
 0003:0000159c       $SG15687                   1009c59c     bg_misc.obj
 0003:000015b0       $SG15688                   1009c5b0     bg_misc.obj
 0003:000015c8       $SG15689                   1009c5c8     bg_misc.obj
 0003:000015ec       $SG15690                   1009c5ec     bg_misc.obj
 0003:00001600       $SG15691                   1009c600     bg_misc.obj
 0003:0000160c       $SG15694                   1009c60c     bg_misc.obj
 0003:00001618       $SG15695                   1009c618     bg_misc.obj
 0003:00001630       $SG15696                   1009c630     bg_misc.obj
 0003:0000164c       $SG15697                   1009c64c     bg_misc.obj
 0003:0000165c       $SG15698                   1009c65c     bg_misc.obj
 0003:00001664       $SG15701                   1009c664     bg_misc.obj
 0003:0000167c       $SG15702                   1009c67c     bg_misc.obj
 0003:00001694       $SG15703                   1009c694     bg_misc.obj
 0003:000016b8       $SG15704                   1009c6b8     bg_misc.obj
 0003:000016cc       $SG15705                   1009c6cc     bg_misc.obj
 0003:000016dc       $SG15708                   1009c6dc     bg_misc.obj
 0003:000016e8       $SG15709                   1009c6e8     bg_misc.obj
 0003:00001700       $SG15710                   1009c700     bg_misc.obj
 0003:00001724       $SG15711                   1009c724     bg_misc.obj
 0003:00001738       $SG15712                   1009c738     bg_misc.obj
 0003:00001740       $SG15715                   1009c740     bg_misc.obj
 0003:00001750       $SG15716                   1009c750     bg_misc.obj
 0003:00001768       $SG15717                   1009c768     bg_misc.obj
 0003:00001790       $SG15718                   1009c790     bg_misc.obj
 0003:000017a8       $SG15719                   1009c7a8     bg_misc.obj
 0003:000017b0       $SG15722                   1009c7b0     bg_misc.obj
 0003:000017c0       $SG15723                   1009c7c0     bg_misc.obj
 0003:000017d8       $SG15724                   1009c7d8     bg_misc.obj
 0003:000017fc       $SG15725                   1009c7fc     bg_misc.obj
 0003:00001810       $SG15726                   1009c810     bg_misc.obj
 0003:0000181c       $SG15729                   1009c81c     bg_misc.obj
 0003:00001828       $SG15730                   1009c828     bg_misc.obj
 0003:00001840       $SG15731                   1009c840     bg_misc.obj
 0003:00001864       $SG15732                   1009c864     bg_misc.obj
 0003:00001878       $SG15733                   1009c878     bg_misc.obj
 0003:00001880       $SG15736                   1009c880     bg_misc.obj
 0003:00001890       $SG15737                   1009c890     bg_misc.obj
 0003:000018a8       $SG15738                   1009c8a8     bg_misc.obj
 0003:000018d0       $SG15739                   1009c8d0     bg_misc.obj
 0003:000018e8       $SG15740                   1009c8e8     bg_misc.obj
 0003:000018f4       $SG15743                   1009c8f4     bg_misc.obj
 0003:00001904       $SG15744                   1009c904     bg_misc.obj
 0003:0000191c       $SG15745                   1009c91c     bg_misc.obj
 0003:00001940       $SG15746                   1009c940     bg_misc.obj
 0003:00001954       $SG15747                   1009c954     bg_misc.obj
 0003:0000195c       $SG15750                   1009c95c     bg_misc.obj
 0003:00001968       $SG15751                   1009c968     bg_misc.obj
 0003:00001980       $SG15752                   1009c980     bg_misc.obj
 0003:000019a4       $SG15753                   1009c9a4     bg_misc.obj
 0003:000019b8       $SG15754                   1009c9b8     bg_misc.obj
 0003:000019c0       $SG15757                   1009c9c0     bg_misc.obj
 0003:000019cc       $SG15758                   1009c9cc     bg_misc.obj
 0003:000019e4       $SG15759                   1009c9e4     bg_misc.obj
 0003:00001a04       $SG15760                   1009ca04     bg_misc.obj
 0003:00001a14       $SG15761                   1009ca14     bg_misc.obj
 0003:00001a20       $SG15764                   1009ca20     bg_misc.obj
 0003:00001a34       $SG15765                   1009ca34     bg_misc.obj
 0003:00001a50       $SG15766                   1009ca50     bg_misc.obj
 0003:00001a78       $SG15767                   1009ca78     bg_misc.obj
 0003:00001a8c       $SG15768                   1009ca8c     bg_misc.obj
 0003:00001aa0       $SG15771                   1009caa0     bg_misc.obj
 0003:00001ab0       $SG15772                   1009cab0     bg_misc.obj
 0003:00001acc       $SG15773                   1009cacc     bg_misc.obj
 0003:00001af0       $SG15774                   1009caf0     bg_misc.obj
 0003:00001b1c       $SG15775                   1009cb1c     bg_misc.obj
 0003:00001b2c       $SG15776                   1009cb2c     bg_misc.obj
 0003:00001b34       $SG15778                   1009cb34     bg_misc.obj
 0003:00001b50       $SG15779                   1009cb50     bg_misc.obj
 0003:00001b5c       $SG15780                   1009cb5c     bg_misc.obj
 0003:00001b74       $SG15781                   1009cb74     bg_misc.obj
 0003:00001b98       $SG15782                   1009cb98     bg_misc.obj
 0003:00001bc0       $SG15783                   1009cbc0     bg_misc.obj
 0003:00001bcc       $SG15784                   1009cbcc     bg_misc.obj
 0003:00001bd8       $SG15786                   1009cbd8     bg_misc.obj
 0003:00001c08       $SG15787                   1009cc08     bg_misc.obj
 0003:00001c14       $SG15788                   1009cc14     bg_misc.obj
 0003:00001c2c       $SG15789                   1009cc2c     bg_misc.obj
 0003:00001c50       $SG15790                   1009cc50     bg_misc.obj
 0003:00001c78       $SG15791                   1009cc78     bg_misc.obj
 0003:00001c8c       $SG15792                   1009cc8c     bg_misc.obj
 0003:00001c98       $SG15794                   1009cc98     bg_misc.obj
 0003:00001cc8       $SG15795                   1009ccc8     bg_misc.obj
 0003:00001cd4       $SG15796                   1009ccd4     bg_misc.obj
 0003:00001cec       $SG15797                   1009ccec     bg_misc.obj
 0003:00001d10       $SG15798                   1009cd10     bg_misc.obj
 0003:00001d38       $SG15799                   1009cd38     bg_misc.obj
 0003:00001d44       $SG15800                   1009cd44     bg_misc.obj
 0003:00001d4c       $SG15803                   1009cd4c     bg_misc.obj
 0003:00001d58       $SG15804                   1009cd58     bg_misc.obj
 0003:00001d74       $SG15805                   1009cd74     bg_misc.obj
 0003:00001d98       $SG15806                   1009cd98     bg_misc.obj
 0003:00001dc0       $SG15807                   1009cdc0     bg_misc.obj
 0003:00001dcc       $SG15808                   1009cdcc     bg_misc.obj
 0003:00001ddc       $SG15811                   1009cddc     bg_misc.obj
 0003:00001de8       $SG15812                   1009cde8     bg_misc.obj
 0003:00001e04       $SG15813                   1009ce04     bg_misc.obj
 0003:00001e28       $SG15814                   1009ce28     bg_misc.obj
 0003:00001e50       $SG15815                   1009ce50     bg_misc.obj
 0003:00001e5c       $SG15816                   1009ce5c     bg_misc.obj
 0003:00001e6c       $SG15818                   1009ce6c     bg_misc.obj
 0003:00001e84       $SG15819                   1009ce84     bg_misc.obj
 0003:00001e90       $SG15820                   1009ce90     bg_misc.obj
 0003:00001ea8       $SG15821                   1009cea8     bg_misc.obj
 0003:00001ecc       $SG15822                   1009cecc     bg_misc.obj
 0003:00001ef4       $SG15823                   1009cef4     bg_misc.obj
 0003:00001f04       $SG15824                   1009cf04     bg_misc.obj
 0003:00001f0c       $SG15826                   1009cf0c     bg_misc.obj
 0003:00001f24       $SG15827                   1009cf24     bg_misc.obj
 0003:00001f38       $SG15828                   1009cf38     bg_misc.obj
 0003:00001f50       $SG15829                   1009cf50     bg_misc.obj
 0003:00001f6c       $SG15830                   1009cf6c     bg_misc.obj
 0003:00001f90       $SG15831                   1009cf90     bg_misc.obj
 0003:00001f9c       $SG15834                   1009cf9c     bg_misc.obj
 0003:00001fb0       $SG15835                   1009cfb0     bg_misc.obj
 0003:00001fc8       $SG15836                   1009cfc8     bg_misc.obj
 0003:00001fe4       $SG15837                   1009cfe4     bg_misc.obj
 0003:0000200c       $SG15838                   1009d00c     bg_misc.obj
 0003:00002018       $SG15841                   1009d018     bg_misc.obj
 0003:0000202c       $SG15842                   1009d02c     bg_misc.obj
 0003:00002048       $SG15843                   1009d048     bg_misc.obj
 0003:00002068       $SG15844                   1009d068     bg_misc.obj
 0003:00002078       $SG15845                   1009d078     bg_misc.obj
 0003:00002084       $SG15847                   1009d084     bg_misc.obj
 0003:000020a4       $SG15848                   1009d0a4     bg_misc.obj
 0003:000020b4       $SG15849                   1009d0b4     bg_misc.obj
 0003:000020d0       $SG15850                   1009d0d0     bg_misc.obj
 0003:000020f4       $SG15851                   1009d0f4     bg_misc.obj
 0003:00002104       $SG15852                   1009d104     bg_misc.obj
 0003:0000210c       $SG15855                   1009d10c     bg_misc.obj
 0003:00002128       $SG15856                   1009d128     bg_misc.obj
 0003:00002144       $SG15857                   1009d144     bg_misc.obj
 0003:00002174       $SG15858                   1009d174     bg_misc.obj
 0003:0000218c       $SG15859                   1009d18c     bg_misc.obj
 0003:0000219c       $SG15862                   1009d19c     bg_misc.obj
 0003:000021a8       $SG15863                   1009d1a8     bg_misc.obj
 0003:000021c0       $SG15864                   1009d1c0     bg_misc.obj
 0003:000021e4       $SG15865                   1009d1e4     bg_misc.obj
 0003:000021f8       $SG15866                   1009d1f8     bg_misc.obj
 0003:00002200       $SG15869                   1009d200     bg_misc.obj
 0003:0000220c       $SG15870                   1009d20c     bg_misc.obj
 0003:00002224       $SG15871                   1009d224     bg_misc.obj
 0003:00002248       $SG15872                   1009d248     bg_misc.obj
 0003:00002264       $SG15873                   1009d264     bg_misc.obj
 0003:00002274       $SG15876                   1009d274     bg_misc.obj
 0003:00002280       $SG15877                   1009d280     bg_misc.obj
 0003:00002298       $SG15878                   1009d298     bg_misc.obj
 0003:000022bc       $SG15879                   1009d2bc     bg_misc.obj
 0003:000022d4       $SG15880                   1009d2d4     bg_misc.obj
 0003:000022e4       $SG15883                   1009d2e4     bg_misc.obj
 0003:000022f0       $SG15884                   1009d2f0     bg_misc.obj
 0003:00002308       $SG15885                   1009d308     bg_misc.obj
 0003:00002324       $SG15886                   1009d324     bg_misc.obj
 0003:00002330       $SG15887                   1009d330     bg_misc.obj
 0003:00002338       $SG15890                   1009d338     bg_misc.obj
 0003:00002344       $SG15891                   1009d344     bg_misc.obj
 0003:0000235c       $SG15892                   1009d35c     bg_misc.obj
 0003:00002378       $SG15893                   1009d378     bg_misc.obj
 0003:00002384       $SG15894                   1009d384     bg_misc.obj
 0003:0000238c       $SG15897                   1009d38c     bg_misc.obj
 0003:0000239c       $SG15898                   1009d39c     bg_misc.obj
 0003:000023b4       $SG15899                   1009d3b4     bg_misc.obj
 0003:000023d0       $SG15900                   1009d3d0     bg_misc.obj
 0003:000023e0       $SG15901                   1009d3e0     bg_misc.obj
 0003:000023e8       $SG15904                   1009d3e8     bg_misc.obj
 0003:000023f8       $SG15905                   1009d3f8     bg_misc.obj
 0003:00002414       $SG15906                   1009d414     bg_misc.obj
 0003:00002430       $SG15907                   1009d430     bg_misc.obj
 0003:00002444       $SG15908                   1009d444     bg_misc.obj
 0003:00002450       $SG15911                   1009d450     bg_misc.obj
 0003:00002468       $SG15912                   1009d468     bg_misc.obj
 0003:00002480       $SG15913                   1009d480     bg_misc.obj
 0003:0000249c       $SG15914                   1009d49c     bg_misc.obj
 0003:000024bc       $SG15915                   1009d4bc     bg_misc.obj
 0003:000024cc       $SG15918                   1009d4cc     bg_misc.obj
 0003:000024dc       $SG15919                   1009d4dc     bg_misc.obj
 0003:000024f4       $SG15920                   1009d4f4     bg_misc.obj
 0003:00002514       $SG15921                   1009d514     bg_misc.obj
 0003:00002528       $SG15922                   1009d528     bg_misc.obj
 0003:00002534       $SG15925                   1009d534     bg_misc.obj
 0003:00002544       $SG15926                   1009d544     bg_misc.obj
 0003:0000255c       $SG15927                   1009d55c     bg_misc.obj
 0003:0000257c       $SG15928                   1009d57c     bg_misc.obj
 0003:00002590       $SG15929                   1009d590     bg_misc.obj
 0003:0000259c       $SG15932                   1009d59c     bg_misc.obj
 0003:000025ac       $SG15933                   1009d5ac     bg_misc.obj
 0003:000025c4       $SG15934                   1009d5c4     bg_misc.obj
 0003:000025e8       $SG15935                   1009d5e8     bg_misc.obj
 0003:000025fc       $SG15936                   1009d5fc     bg_misc.obj
 0003:00002604       $SG15939                   1009d604     bg_misc.obj
 0003:0000261c       $SG15940                   1009d61c     bg_misc.obj
 0003:00002634       $SG15941                   1009d634     bg_misc.obj
 0003:0000265c       $SG15942                   1009d65c     bg_misc.obj
 0003:00002678       $SG15943                   1009d678     bg_misc.obj
 0003:00002688       $SG15945                   1009d688     bg_misc.obj
 0003:00002760       $SG15946                   1009d760     bg_misc.obj
 0003:00002770       $SG15947                   1009d770     bg_misc.obj
 0003:00002788       $SG15948                   1009d788     bg_misc.obj
 0003:000027ac       $SG15949                   1009d7ac     bg_misc.obj
 0003:000027c4       $SG15950                   1009d7c4     bg_misc.obj
 0003:000027d0       $SG15952                   1009d7d0     bg_misc.obj
 0003:000027f4       $SG15953                   1009d7f4     bg_misc.obj
 0003:00002804       $SG15954                   1009d804     bg_misc.obj
 0003:00002818       $SG15955                   1009d818     bg_misc.obj
 0003:00002824       $SG15958                   1009d824     bg_misc.obj
 0003:00002830       $SG15959                   1009d830     bg_misc.obj
 0003:00002848       $SG15960                   1009d848     bg_misc.obj
 0003:00002864       $SG15961                   1009d864     bg_misc.obj
 0003:00002874       $SG15962                   1009d874     bg_misc.obj
 0003:00002888       $SG15965                   1009d888     bg_misc.obj
 0003:00002894       $SG15966                   1009d894     bg_misc.obj
 0003:000028ac       $SG15967                   1009d8ac     bg_misc.obj
 0003:000028cc       $SG15968                   1009d8cc     bg_misc.obj
 0003:000028dc       $SG15969                   1009d8dc     bg_misc.obj
 0003:000028ec       $SG15972                   1009d8ec     bg_misc.obj
 0003:000028f8       $SG15973                   1009d8f8     bg_misc.obj
 0003:00002910       $SG15974                   1009d910     bg_misc.obj
 0003:00002934       $SG15975                   1009d934     bg_misc.obj
 0003:00002944       $SG15976                   1009d944     bg_misc.obj
 0003:00002950       $SG15979                   1009d950     bg_misc.obj
 0003:00002960       $SG15980                   1009d960     bg_misc.obj
 0003:0000297c       $SG15981                   1009d97c     bg_misc.obj
 0003:000029a0       $SG15982                   1009d9a0     bg_misc.obj
 0003:000029b4       $SG15983                   1009d9b4     bg_misc.obj
 0003:000029c0       $SG15986                   1009d9c0     bg_misc.obj
 0003:000029d0       $SG15987                   1009d9d0     bg_misc.obj
 0003:000029ec       $SG15988                   1009d9ec     bg_misc.obj
 0003:00002a10       $SG15989                   1009da10     bg_misc.obj
 0003:00002a20       $SG15990                   1009da20     bg_misc.obj
 0003:00002a2c       $SG15993                   1009da2c     bg_misc.obj
 0003:00002a3c       $SG15994                   1009da3c     bg_misc.obj
 0003:00002a58       $SG15995                   1009da58     bg_misc.obj
 0003:00002a7c       $SG15996                   1009da7c     bg_misc.obj
 0003:00002a90       $SG15997                   1009da90     bg_misc.obj
 0003:00002a9c       $SG16294                   1009da9c     bg_misc.obj
 0003:00002aa4       $SG16295                   1009daa4     bg_misc.obj
 0003:00002c40       $SG16296                   1009dc40     bg_misc.obj
 0003:00002c54       $SG16297                   1009dc54     bg_misc.obj
 0003:00002c64       $SG16298                   1009dc64     bg_misc.obj
 0003:00002c70       $SG16299                   1009dc70     bg_misc.obj
 0003:00002c78       $SG16300                   1009dc78     bg_misc.obj
 0003:00002c88       $SG16301                   1009dc88     bg_misc.obj
 0003:00002c98       $SG16302                   1009dc98     bg_misc.obj
 0003:00002ca4       $SG16303                   1009dca4     bg_misc.obj
 0003:00002cb0       $SG16304                   1009dcb0     bg_misc.obj
 0003:00002cb8       $SG16305                   1009dcb8     bg_misc.obj
 0003:00002cc8       $SG16306                   1009dcc8     bg_misc.obj
 0003:00002cd8       $SG16307                   1009dcd8     bg_misc.obj
 0003:00002ce8       $SG16308                   1009dce8     bg_misc.obj
 0003:00002cf8       $SG16309                   1009dcf8     bg_misc.obj
 0003:00002d08       $SG16310                   1009dd08     bg_misc.obj
 0003:00002d20       $SG16311                   1009dd20     bg_misc.obj
 0003:00002d2c       $SG16312                   1009dd2c     bg_misc.obj
 0003:00002d40       $SG16313                   1009dd40     bg_misc.obj
 0003:00002d50       $SG16314                   1009dd50     bg_misc.obj
 0003:00002d60       $SG16315                   1009dd60     bg_misc.obj
 0003:00002d70       $SG16316                   1009dd70     bg_misc.obj
 0003:00002d80       $SG16317                   1009dd80     bg_misc.obj
 0003:00002d90       $SG16318                   1009dd90     bg_misc.obj
 0003:00002da0       $SG16319                   1009dda0     bg_misc.obj
 0003:00002db0       $SG16320                   1009ddb0     bg_misc.obj
 0003:00002dc0       $SG16321                   1009ddc0     bg_misc.obj
 0003:00002dd0       $SG16322                   1009ddd0     bg_misc.obj
 0003:00002de0       $SG16323                   1009dde0     bg_misc.obj
 0003:00002df0       $SG16324                   1009ddf0     bg_misc.obj
 0003:00002e00       $SG16325                   1009de00     bg_misc.obj
 0003:00002e10       $SG16326                   1009de10     bg_misc.obj
 0003:00002e20       $SG16327                   1009de20     bg_misc.obj
 0003:00002e30       $SG16328                   1009de30     bg_misc.obj
 0003:00002e40       $SG16329                   1009de40     bg_misc.obj
 0003:00002e50       $SG16330                   1009de50     bg_misc.obj
 0003:00002e60       $SG16331                   1009de60     bg_misc.obj
 0003:00002e70       $SG16332                   1009de70     bg_misc.obj
 0003:00002e7c       $SG16333                   1009de7c     bg_misc.obj
 0003:00002e94       $SG16334                   1009de94     bg_misc.obj
 0003:00002eac       $SG16335                   1009deac     bg_misc.obj
 0003:00002ec0       $SG16336                   1009dec0     bg_misc.obj
 0003:00002ed4       $SG16337                   1009ded4     bg_misc.obj
 0003:00002ee4       $SG16338                   1009dee4     bg_misc.obj
 0003:00002efc       $SG16339                   1009defc     bg_misc.obj
 0003:00002f10       $SG16340                   1009df10     bg_misc.obj
 0003:00002f24       $SG16341                   1009df24     bg_misc.obj
 0003:00002f34       $SG16342                   1009df34     bg_misc.obj
 0003:00002f44       $SG16343                   1009df44     bg_misc.obj
 0003:00002f5c       $SG16344                   1009df5c     bg_misc.obj
 0003:00002f6c       $SG16345                   1009df6c     bg_misc.obj
 0003:00002f78       $SG16346                   1009df78     bg_misc.obj
 0003:00002f88       $SG16347                   1009df88     bg_misc.obj
 0003:00002f90       $SG16348                   1009df90     bg_misc.obj
 0003:00002f9c       $SG16349                   1009df9c     bg_misc.obj
 0003:00002fa8       $SG16350                   1009dfa8     bg_misc.obj
 0003:00002fb4       $SG16351                   1009dfb4     bg_misc.obj
 0003:00002fc0       $SG16352                   1009dfc0     bg_misc.obj
 0003:00002fcc       $SG16353                   1009dfcc     bg_misc.obj
 0003:00002fdc       $SG16354                   1009dfdc     bg_misc.obj
 0003:00002ff4       $SG16355                   1009dff4     bg_misc.obj
 0003:00003008       $SG16356                   1009e008     bg_misc.obj
 0003:00003020       $SG16357                   1009e020     bg_misc.obj
 0003:00003030       $SG16358                   1009e030     bg_misc.obj
 0003:00003040       $SG16359                   1009e040     bg_misc.obj
 0003:00003058       $SG16360                   1009e058     bg_misc.obj
 0003:00003074       $SG16361                   1009e074     bg_misc.obj
 0003:00003080       $SG16362                   1009e080     bg_misc.obj
 0003:00003094       $SG16363                   1009e094     bg_misc.obj
 0003:000030a4       $SG16364                   1009e0a4     bg_misc.obj
 0003:000030b4       $SG16365                   1009e0b4     bg_misc.obj
 0003:000030c0       $SG16366                   1009e0c0     bg_misc.obj
 0003:000030d4       $SG16367                   1009e0d4     bg_misc.obj
 0003:000030e4       $SG16368                   1009e0e4     bg_misc.obj
 0003:000030f0       $SG16369                   1009e0f0     bg_misc.obj
 0003:00003100       $SG16370                   1009e100     bg_misc.obj
 0003:0000310c       $SG16371                   1009e10c     bg_misc.obj
 0003:00003120       $SG16372                   1009e120     bg_misc.obj
 0003:00003134       $SG16373                   1009e134     bg_misc.obj
 0003:00003148       $SG16374                   1009e148     bg_misc.obj
 0003:00003158       $SG16375                   1009e158     bg_misc.obj
 0003:0000316c       $SG16376                   1009e16c     bg_misc.obj
 0003:00003180       $SG16377                   1009e180     bg_misc.obj
 0003:00003194       $SG16378                   1009e194     bg_misc.obj
 0003:000031a0       $SG16379                   1009e1a0     bg_misc.obj
 0003:000031ac       $SG16380                   1009e1ac     bg_misc.obj
 0003:000031c8       $SG16381                   1009e1c8     bg_misc.obj
 0003:000031d8       $SG16382                   1009e1d8     bg_misc.obj
 0003:000031e8       $SG16383                   1009e1e8     bg_misc.obj
 0003:000031f8       $SG16018                   1009e1f8     bg_misc.obj
 0003:00003220       $SG16038                   1009e220     bg_misc.obj
 0003:00003250       $SG16041                   1009e250     bg_misc.obj
 0003:0000328c       $SG16194                   1009e28c     bg_misc.obj
 0003:000032b4       $SG16198                   1009e2b4     bg_misc.obj
 0003:000032e0       $SG16272                   1009e2e0     bg_misc.obj
 0003:0000330c       $SG16292                   1009e30c     bg_misc.obj
 0003:0000333c       $SG16409                   1009e33c     bg_misc.obj
 0003:00003348       $SG16411                   1009e348     bg_misc.obj
 0003:000033b4       $SG16096                   1009e3b4     bg_pmove.obj
 0003:000033c4       $SG16115                   1009e3c4     bg_pmove.obj
 0003:000033d0       $SG16131                   1009e3d0     bg_pmove.obj
 0003:000033dc       $SG16136                   1009e3dc     bg_pmove.obj
 0003:000033e8       $SG16140                   1009e3e8     bg_pmove.obj
 0003:000033f8       $SG16348                   1009e3f8     bg_pmove.obj
 0003:00003468       $SG15620                   1009e468     bg_slidemove.obj
 0003:0000347c       $SG15634                   1009e47c     bg_slidemove.obj
 0003:00003d7c       $SG14673                   1009ed7c     q_math.obj
 0003:00003db0       $SG14672                   1009edb0     q_math.obj
 0003:00003e24       $SG14539                   1009ee24     q_shared.obj
 0003:00003e2c       $SG14592                   1009ee2c     q_shared.obj
 0003:00003e30       $SG14611                   1009ee30     q_shared.obj
 0003:00003e48       $SG14625                   1009ee48     q_shared.obj
 0003:00003e64       $SG14724                   1009ee64     q_shared.obj
 0003:00003e7c       $SG14758                   1009ee7c     q_shared.obj
 0003:00003e80       $SG14759                   1009ee80     q_shared.obj
 0003:00003e84       $SG14773                   1009ee84     q_shared.obj
 0003:00003e88       $SG14774                   1009ee88     q_shared.obj
 0003:00003e8c       $SG14790                   1009ee8c     q_shared.obj
 0003:00003e90       $SG14791                   1009ee90     q_shared.obj
 0003:00003e94       $SG14832                   1009ee94     q_shared.obj
 0003:00003eac       $SG14834                   1009eeac     q_shared.obj
 0003:00003ec4       $SG14836                   1009eec4     q_shared.obj
 0003:00003ee0       $SG14913                   1009eee0     q_shared.obj
 0003:00003f00       $SG14952                   1009ef00     q_shared.obj
 0003:00003f24       $SG14954                   1009ef24     q_shared.obj
 0003:00003f48       $SG14992                   1009ef48     q_shared.obj
 0003:00003f70       $SG15030                   1009ef70     q_shared.obj
 0003:00003f94       $SG15054                   1009ef94     q_shared.obj
 0003:00003fbc       $SG15075                   1009efbc     q_shared.obj
 0003:00003fe8       $SG15078                   1009efe8     q_shared.obj
 0003:0000400c       $SG15081                   1009f00c     q_shared.obj
 0003:00004038       $SG15084                   1009f038     q_shared.obj
 0003:0000405c       $SG15087                   1009f05c     q_shared.obj
 0003:00004064       $SG15089                   1009f064     q_shared.obj
 0003:00004084       $SG15099                   1009f084     q_shared.obj
 0003:000040b0       $SG15102                   1009f0b0     q_shared.obj
 0003:000040d4       $SG15105                   1009f0d4     q_shared.obj
 0003:00004100       $SG15108                   1009f100     q_shared.obj
 0003:00004124       $SG15111                   1009f124     q_shared.obj
 0003:0000412c       $SG15113                   1009f12c     q_shared.obj
 0003:00004228       $SG17476                   1009f228     ui_shared.obj
 0003:00004230       $SG17477                   1009f230     ui_shared.obj
 0003:00004238       $SG17478                   1009f238     ui_shared.obj
 0003:00004240       $SG17479                   1009f240     ui_shared.obj
 0003:00004248       $SG17480                   1009f248     ui_shared.obj
 0003:00004254       $SG17481                   1009f254     ui_shared.obj
 0003:0000425c       $SG17482                   1009f25c     ui_shared.obj
 0003:0000426c       $SG17483                   1009f26c     ui_shared.obj
 0003:00004274       $SG17484                   1009f274     ui_shared.obj
 0003:0000427c       $SG17485                   1009f27c     ui_shared.obj
 0003:00004288       $SG17486                   1009f288     ui_shared.obj
 0003:00004298       $SG17487                   1009f298     ui_shared.obj
 0003:000042a8       $SG17488                   1009f2a8     ui_shared.obj
 0003:000042b8       $SG17489                   1009f2b8     ui_shared.obj
 0003:000042c4       $SG17490                   1009f2c4     ui_shared.obj
 0003:000042d4       $SG17491                   1009f2d4     ui_shared.obj
 0003:000042e4       $SG17492                   1009f2e4     ui_shared.obj
 0003:000042f0       $SG17493                   1009f2f0     ui_shared.obj
 0003:000042f8       $SG17494                   1009f2f8     ui_shared.obj
 0003:00004300       $SG17495                   1009f300     ui_shared.obj
 0003:00004308       $SG17496                   1009f308     ui_shared.obj
 0003:00004318       $SG17497                   1009f318     ui_shared.obj
 0003:00004324       $SG17498                   1009f324     ui_shared.obj
 0003:0000433c       $SG17499                   1009f33c     ui_shared.obj
 0003:00004348       $SG17500                   1009f348     ui_shared.obj
 0003:00004354       $SG17501                   1009f354     ui_shared.obj
 0003:0000435c       $SG17502                   1009f35c     ui_shared.obj
 0003:00004368       $SG18649                   1009f368     ui_shared.obj
 0003:00004370       $SG18650                   1009f370     ui_shared.obj
 0003:0000437c       $SG18651                   1009f37c     ui_shared.obj
 0003:00004384       $SG18652                   1009f384     ui_shared.obj
 0003:00004390       $SG18653                   1009f390     ui_shared.obj
 0003:00004398       $SG18654                   1009f398     ui_shared.obj
 0003:000043a4       $SG18655                   1009f3a4     ui_shared.obj
 0003:000043b0       $SG18656                   1009f3b0     ui_shared.obj
 0003:000043b8       $SG18657                   1009f3b8     ui_shared.obj
 0003:000043c4       $SG18658                   1009f3c4     ui_shared.obj
 0003:000043cc       $SG18659                   1009f3cc     ui_shared.obj
 0003:000043d4       $SG18660                   1009f3d4     ui_shared.obj
 0003:000043dc       $SG18661                   1009f3dc     ui_shared.obj
 0003:000043e4       $SG18662                   1009f3e4     ui_shared.obj
 0003:000043f0       $SG18663                   1009f3f0     ui_shared.obj
 0003:000043f8       $SG18664                   1009f3f8     ui_shared.obj
 0003:00004404       $SG18665                   1009f404     ui_shared.obj
 0003:0000440c       $SG18666                   1009f40c     ui_shared.obj
 0003:00004418       $SG18667                   1009f418     ui_shared.obj
 0003:00004424       $SG18668                   1009f424     ui_shared.obj
 0003:00004430       $SG18669                   1009f430     ui_shared.obj
 0003:0000443c       $SG18670                   1009f43c     ui_shared.obj
 0003:00004448       $SG18671                   1009f448     ui_shared.obj
 0003:00004454       $SG18672                   1009f454     ui_shared.obj
 0003:00004460       $SG18673                   1009f460     ui_shared.obj
 0003:0000446c       $SG18674                   1009f46c     ui_shared.obj
 0003:00004478       $SG18675                   1009f478     ui_shared.obj
 0003:00004484       $SG18676                   1009f484     ui_shared.obj
 0003:00004490       $SG18677                   1009f490     ui_shared.obj
 0003:0000449c       $SG18678                   1009f49c     ui_shared.obj
 0003:000044a8       $SG18679                   1009f4a8     ui_shared.obj
 0003:000044b0       $SG18680                   1009f4b0     ui_shared.obj
 0003:000044bc       $SG18681                   1009f4bc     ui_shared.obj
 0003:000044c8       $SG18682                   1009f4c8     ui_shared.obj
 0003:000044d4       $SG18683                   1009f4d4     ui_shared.obj
 0003:000044e0       $SG18684                   1009f4e0     ui_shared.obj
 0003:000044f0       $SG18685                   1009f4f0     ui_shared.obj
 0003:00004500       $SG18686                   1009f500     ui_shared.obj
 0003:0000450c       $SG18687                   1009f50c     ui_shared.obj
 0003:0000451c       $SG18688                   1009f51c     ui_shared.obj
 0003:00004528       $SG18689                   1009f528     ui_shared.obj
 0003:00004534       $SG18690                   1009f534     ui_shared.obj
 0003:00004540       $SG18691                   1009f540     ui_shared.obj
 0003:0000454c       $SG18692                   1009f54c     ui_shared.obj
 0003:00004558       $SG18693                   1009f558     ui_shared.obj
 0003:00004564       $SG18694                   1009f564     ui_shared.obj
 0003:00004574       $SG18695                   1009f574     ui_shared.obj
 0003:00004580       $SG18696                   1009f580     ui_shared.obj
 0003:0000458c       $SG18697                   1009f58c     ui_shared.obj
 0003:00004598       $SG18698                   1009f598     ui_shared.obj
 0003:000045a8       $SG18699                   1009f5a8     ui_shared.obj
 0003:000045b4       $SG18700                   1009f5b4     ui_shared.obj
 0003:000045c0       $SG18701                   1009f5c0     ui_shared.obj
 0003:000045d4       $SG18702                   1009f5d4     ui_shared.obj
 0003:000045e4       $SG18703                   1009f5e4     ui_shared.obj
 0003:000045f0       $SG18704                   1009f5f0     ui_shared.obj
 0003:000045fc       $SG18705                   1009f5fc     ui_shared.obj
 0003:00004608       $SG18706                   1009f608     ui_shared.obj
 0003:00004618       $SG18707                   1009f618     ui_shared.obj
 0003:00004628       $SG18708                   1009f628     ui_shared.obj
 0003:00004a04       $SG20071                   1009fa04     ui_shared.obj
 0003:00004a0c       $SG20072                   1009fa0c     ui_shared.obj
 0003:00004a14       $SG20073                   1009fa14     ui_shared.obj
 0003:00004a1c       $SG20074                   1009fa1c     ui_shared.obj
 0003:00004a28       $SG20075                   1009fa28     ui_shared.obj
 0003:00004a38       $SG20076                   1009fa38     ui_shared.obj
 0003:00004a48       $SG20077                   1009fa48     ui_shared.obj
 0003:00004a54       $SG20078                   1009fa54     ui_shared.obj
 0003:00004a60       $SG20079                   1009fa60     ui_shared.obj
 0003:00004a70       $SG20080                   1009fa70     ui_shared.obj
 0003:00004a7c       $SG20081                   1009fa7c     ui_shared.obj
 0003:00004a84       $SG20082                   1009fa84     ui_shared.obj
 0003:00004a90       $SG20083                   1009fa90     ui_shared.obj
 0003:00004a98       $SG20084                   1009fa98     ui_shared.obj
 0003:00004aa4       $SG20085                   1009faa4     ui_shared.obj
 0003:00004ab4       $SG20086                   1009fab4     ui_shared.obj
 0003:00004abc       $SG20087                   1009fabc     ui_shared.obj
 0003:00004ac8       $SG20088                   1009fac8     ui_shared.obj
 0003:00004adc       $SG20089                   1009fadc     ui_shared.obj
 0003:00004ae4       $SG20090                   1009fae4     ui_shared.obj
 0003:00004af4       $SG20091                   1009faf4     ui_shared.obj
 0003:00004b04       $SG20092                   1009fb04     ui_shared.obj
 0003:00004b0c       $SG20093                   1009fb0c     ui_shared.obj
 0003:00004b18       $SG20094                   1009fb18     ui_shared.obj
 0003:00004b20       $SG20095                   1009fb20     ui_shared.obj
 0003:00004b28       $SG20096                   1009fb28     ui_shared.obj
 0003:00004b34       $SG20097                   1009fb34     ui_shared.obj
 0003:00004b3c       $SG20098                   1009fb3c     ui_shared.obj
 0003:00004b48       $SG20099                   1009fb48     ui_shared.obj
 0003:00004b50       $SG20100                   1009fb50     ui_shared.obj
 0003:00004b5c       $SG20101                   1009fb5c     ui_shared.obj
 0003:00004b68       $SG20102                   1009fb68     ui_shared.obj
 0003:00004b74       $SG20103                   1009fb74     ui_shared.obj
 0003:00004b7c       $SG20104                   1009fb7c     ui_shared.obj
 0003:00004b88       $SG20105                   1009fb88     ui_shared.obj
 0003:00004b94       $SG20106                   1009fb94     ui_shared.obj
 0003:00004ba0       $SG20107                   1009fba0     ui_shared.obj
 0003:00004bac       $SG20108                   1009fbac     ui_shared.obj
 0003:00004bb8       $SG20109                   1009fbb8     ui_shared.obj
 0003:00004bc8       $SG20110                   1009fbc8     ui_shared.obj
 0003:00004bd4       $SG20111                   1009fbd4     ui_shared.obj
 0003:00004bdc       $SG20112                   1009fbdc     ui_shared.obj
 0003:00004be8       $SG20113                   1009fbe8     ui_shared.obj
 0003:00004bf4       $SG20114                   1009fbf4     ui_shared.obj
 0003:00004c00       $SG20115                   1009fc00     ui_shared.obj
 0003:00004c10       $SG20116                   1009fc10     ui_shared.obj
 0003:00004c20       $SG20117                   1009fc20     ui_shared.obj
 0003:00004c28       $SG20118                   1009fc28     ui_shared.obj
 0003:00004c30       $SG20119                   1009fc30     ui_shared.obj
 0003:00004c40       $SG20120                   1009fc40     ui_shared.obj
 0003:00004c48       $SG20121                   1009fc48     ui_shared.obj
 0003:00004c54       $SG20122                   1009fc54     ui_shared.obj
 0003:00004c5c       $SG20123                   1009fc5c     ui_shared.obj
 0003:00004c64       $SG20124                   1009fc64     ui_shared.obj
 0003:00004c70       $SG20125                   1009fc70     ui_shared.obj
 0003:00004c80       $SG20126                   1009fc80     ui_shared.obj
 0003:00004c8c       $SG20127                   1009fc8c     ui_shared.obj
 0003:00004c98       $SG20128                   1009fc98     ui_shared.obj
 0003:00004ca0       $SG20129                   1009fca0     ui_shared.obj
 0003:00004cac       $SG20130                   1009fcac     ui_shared.obj
 0003:00004cb8       $SG20131                   1009fcb8     ui_shared.obj
 0003:00004cc8       $SG20132                   1009fcc8     ui_shared.obj
 0003:00004cd8       $SG20133                   1009fcd8     ui_shared.obj
 0003:00004ce8       $SG20134                   1009fce8     ui_shared.obj
 0003:00004cf8       $SG20135                   1009fcf8     ui_shared.obj
 0003:00004d04       $SG20136                   1009fd04     ui_shared.obj
 0003:00004d10       $SG20137                   1009fd10     ui_shared.obj
 0003:00004d1c       $SG20138                   1009fd1c     ui_shared.obj
 0003:00004d28       $SG20139                   1009fd28     ui_shared.obj
 0003:00004d34       $SG20140                   1009fd34     ui_shared.obj
 0003:00004d40       $SG20141                   1009fd40     ui_shared.obj
 0003:00004d4c       $SG20142                   1009fd4c     ui_shared.obj
 0003:00004d58       $SG20143                   1009fd58     ui_shared.obj
 0003:00004d64       $SG20144                   1009fd64     ui_shared.obj
 0003:00004d70       $SG20145                   1009fd70     ui_shared.obj
 0003:00004d7c       $SG20146                   1009fd7c     ui_shared.obj
 0003:00004d88       $SG20147                   1009fd88     ui_shared.obj
 0003:00004d94       $SG20148                   1009fd94     ui_shared.obj
 0003:00004da0       $SG20149                   1009fda0     ui_shared.obj
 0003:00004dac       $SG20150                   1009fdac     ui_shared.obj
 0003:00004f2c       $SG20532                   1009ff2c     ui_shared.obj
 0003:00004f34       $SG20533                   1009ff34     ui_shared.obj
 0003:00004f3c       $SG20534                   1009ff3c     ui_shared.obj
 0003:00004f48       $SG20535                   1009ff48     ui_shared.obj
 0003:00004f54       $SG20536                   1009ff54     ui_shared.obj
 0003:00004f5c       $SG20537                   1009ff5c     ui_shared.obj
 0003:00004f64       $SG20538                   1009ff64     ui_shared.obj
 0003:00004f6c       $SG20539                   1009ff6c     ui_shared.obj
 0003:00004f74       $SG20540                   1009ff74     ui_shared.obj
 0003:00004f7c       $SG20541                   1009ff7c     ui_shared.obj
 0003:00004f84       $SG20542                   1009ff84     ui_shared.obj
 0003:00004f8c       $SG20543                   1009ff8c     ui_shared.obj
 0003:00004f98       $SG20544                   1009ff98     ui_shared.obj
 0003:00004fa4       $SG20545                   1009ffa4     ui_shared.obj
 0003:00004fb0       $SG20546                   1009ffb0     ui_shared.obj
 0003:00004fbc       $SG20547                   1009ffbc     ui_shared.obj
 0003:00004fc8       $SG20548                   1009ffc8     ui_shared.obj
 0003:00004fd8       $SG20549                   1009ffd8     ui_shared.obj
 0003:00004fe8       $SG20550                   1009ffe8     ui_shared.obj
 0003:00004ff4       $SG20551                   1009fff4     ui_shared.obj
 0003:00005004       $SG20552                   100a0004     ui_shared.obj
 0003:00005010       $SG20553                   100a0010     ui_shared.obj
 0003:00005020       $SG20554                   100a0020     ui_shared.obj
 0003:00005034       $SG20555                   100a0034     ui_shared.obj
 0003:00005040       $SG20556                   100a0040     ui_shared.obj
 0003:00005048       $SG20557                   100a0048     ui_shared.obj
 0003:00005054       $SG20558                   100a0054     ui_shared.obj
 0003:0000505c       $SG20559                   100a005c     ui_shared.obj
 0003:00005068       $SG20560                   100a0068     ui_shared.obj
 0003:00005074       $SG20561                   100a0074     ui_shared.obj
 0003:00005080       $SG16294                   100a0080     ui_shared.obj
 0003:00005090       $SG16295                   100a0090     ui_shared.obj
 0003:0000509c       $SG16296                   100a009c     ui_shared.obj
 0003:000050a8       $SG16297                   100a00a8     ui_shared.obj
 0003:000050b8       $SG16298                   100a00b8     ui_shared.obj
 0003:000050c4       $SG16299                   100a00c4     ui_shared.obj
 0003:000050d4       $SG16300                   100a00d4     ui_shared.obj
 0003:000050e0       $SG16301                   100a00e0     ui_shared.obj
 0003:000050f0       $SG16302                   100a00f0     ui_shared.obj
 0003:000050fc       $SG16303                   100a00fc     ui_shared.obj
 0003:0000510c       $SG16304                   100a010c     ui_shared.obj
 0003:00005110       $SG16305                   100a0110     ui_shared.obj
 0003:0000511c       $SG16306                   100a011c     ui_shared.obj
 0003:00005120       $SG16307                   100a0120     ui_shared.obj
 0003:00005130       $SG16308                   100a0130     ui_shared.obj
 0003:00005134       $SG16309                   100a0134     ui_shared.obj
 0003:00005144       $SG16310                   100a0144     ui_shared.obj
 0003:0000514c       $SG16311                   100a014c     ui_shared.obj
 0003:00005158       $SG16312                   100a0158     ui_shared.obj
 0003:00005160       $SG16313                   100a0160     ui_shared.obj
 0003:00005170       $SG16314                   100a0170     ui_shared.obj
 0003:00005178       $SG16315                   100a0178     ui_shared.obj
 0003:00005188       $SG16316                   100a0188     ui_shared.obj
 0003:00005194       $SG16317                   100a0194     ui_shared.obj
 0003:000051a0       $SG16318                   100a01a0     ui_shared.obj
 0003:000051ac       $SG16319                   100a01ac     ui_shared.obj
 0003:000051bc       $SG16320                   100a01bc     ui_shared.obj
 0003:000051c8       $SG16321                   100a01c8     ui_shared.obj
 0003:000051d8       $SG16322                   100a01d8     ui_shared.obj
 0003:000051e8       $SG16323                   100a01e8     ui_shared.obj
 0003:000051f4       $SG16324                   100a01f4     ui_shared.obj
 0003:00005204       $SG16325                   100a0204     ui_shared.obj
 0003:00005214       $SG16326                   100a0214     ui_shared.obj
 0003:00005224       $SG16327                   100a0224     ui_shared.obj
 0003:00005234       $SG16328                   100a0234     ui_shared.obj
 0003:00005244       $SG16329                   100a0244     ui_shared.obj
 0003:00005250       $SG16330                   100a0250     ui_shared.obj
 0003:00005264       $SG16331                   100a0264     ui_shared.obj
 0003:00005274       $SG16332                   100a0274     ui_shared.obj
 0003:00005288       $SG16333                   100a0288     ui_shared.obj
 0003:00005298       $SG16416                   100a0298     ui_shared.obj
 0003:000052bc       ?staticNULL@?1??String_Alloc@@9@9 100a02bc     ui_shared.obj
 0003:000052c0       $SG16467                   100a02c0     ui_shared.obj
 0003:000052dc       $SG16468                   100a02dc     ui_shared.obj
 0003:000052f0       $SG16469                   100a02f0     ui_shared.obj
 0003:00005328       $SG16470                   100a0328     ui_shared.obj
 0003:00005360       $SG16496                   100a0360     ui_shared.obj
 0003:0000537c       $SG16516                   100a037c     ui_shared.obj
 0003:00005398       $SG16552                   100a0398     ui_shared.obj
 0003:000053b8       $SG16596                   100a03b8     ui_shared.obj
 0003:000053d8       $SG16664                   100a03d8     ui_shared.obj
 0003:000053dc       $SG16667                   100a03dc     ui_shared.obj
 0003:000053e0       $SG16670                   100a03e0     ui_shared.obj
 0003:000053e8       $SG16671                   100a03e8     ui_shared.obj
 0003:000053ec       $SG16947                   100a03ec     ui_shared.obj
 0003:000053f8       $SG16950                   100a03f8     ui_shared.obj
 0003:00005404       $SG16952                   100a0404     ui_shared.obj
 0003:00005410       $SG17018                   100a0410     ui_shared.obj
 0003:00005414       $SG17020                   100a0414     ui_shared.obj
 0003:0000541c       $SG17021                   100a041c     ui_shared.obj
 0003:00005420       $SG17103                   100a0420     ui_shared.obj
 0003:00005428       $SG17143                   100a0428     ui_shared.obj
 0003:00005434       $SG17146                   100a0434     ui_shared.obj
 0003:00005440       $SG17148                   100a0440     ui_shared.obj
 0003:0000544c       $SG17388                   100a044c     ui_shared.obj
 0003:00005454       $SG17397                   100a0454     ui_shared.obj
 0003:00005460       $SG17415                   100a0460     ui_shared.obj
 0003:00005468       $SG17879                   100a0468     ui_shared.obj
 0003:0000546c       $SG17941                   100a046c     ui_shared.obj
 0003:00005474       $SG17980                   100a0474     ui_shared.obj
 0003:00005478       $SG17981                   100a0478     ui_shared.obj
 0003:0000547c       $SG18015                   100a047c     ui_shared.obj
 0003:00005480       $SG18165                   100a0480     ui_shared.obj
 0003:00005498       $SG18329                   100a0498     ui_shared.obj
 0003:000054a4       $SG18332                   100a04a4     ui_shared.obj
 0003:000054b0       $SG18333                   100a04b0     ui_shared.obj
 0003:000054bc       $SG18576                   100a04bc     ui_shared.obj
 0003:000054c0       $SG18577                   100a04c0     ui_shared.obj
 0003:000054c4       $SG18578                   100a04c4     ui_shared.obj
 0003:000054c8       $SG18579                   100a04c8     ui_shared.obj
 0003:000054cc       $SG18742                   100a04cc     ui_shared.obj
 0003:000054d8       _g_bindings                100a04d8     ui_shared.obj
 0003:00005a78       $SG18772                   100a0a78     ui_shared.obj
 0003:00005a80       $SG18773                   100a0a80     ui_shared.obj
 0003:00005a84       $SG18809                   100a0a84     ui_shared.obj
 0003:00005a8c       $SG18810                   100a0a8c     ui_shared.obj
 0003:00005a94       $SG19823                   100a0a94     ui_shared.obj
 0003:00005ab4       $SG19845                   100a0ab4     ui_shared.obj
 0003:00005ad4       $SG19867                   100a0ad4     ui_shared.obj
 0003:00005af4       $SG20171                   100a0af4     ui_shared.obj
 0003:00005b14       $SG20174                   100a0b14     ui_shared.obj
 0003:00005b34       $SG20176                   100a0b34     ui_shared.obj
 0003:00005b58       $SG20198                   100a0b58     ui_shared.obj
 0003:00005b64       $SG20200                   100a0b64     ui_shared.obj
 0003:00005b74       $SG20201                   100a0b74     ui_shared.obj
 0003:00005b84       $SG20212                   100a0b84     ui_shared.obj
 0003:00005b8c       $SG20584                   100a0b8c     ui_shared.obj
 0003:00005ba8       $SG20587                   100a0ba8     ui_shared.obj
 0003:00005bc0       $SG20589                   100a0bc0     ui_shared.obj
 0003:00005be0       $SG20605                   100a0be0     ui_shared.obj
 0003:00005be8       $SG21399                   100a0be8     cg_consolecmds.obj
 0003:00005bf0       $SG21400                   100a0bf0     cg_consolecmds.obj
 0003:00005bf8       $SG21401                   100a0bf8     cg_consolecmds.obj
 0003:00005c00       $SG21402                   100a0c00     cg_consolecmds.obj
 0003:00005c08       $SG21403                   100a0c08     cg_consolecmds.obj
 0003:00005c10       $SG21404                   100a0c10     cg_consolecmds.obj
 0003:00005c18       $SG21405                   100a0c18     cg_consolecmds.obj
 0003:00005c20       $SG21406                   100a0c20     cg_consolecmds.obj
 0003:00005c28       $SG21407                   100a0c28     cg_consolecmds.obj
 0003:00005c30       $SG21408                   100a0c30     cg_consolecmds.obj
 0003:00005c38       $SG21409                   100a0c38     cg_consolecmds.obj
 0003:00005c44       $SG21410                   100a0c44     cg_consolecmds.obj
 0003:00005c50       $SG21411                   100a0c50     cg_consolecmds.obj
 0003:00005c5c       $SG21412                   100a0c5c     cg_consolecmds.obj
 0003:00005c64       $SG21413                   100a0c64     cg_consolecmds.obj
 0003:00005c70       $SG21414                   100a0c70     cg_consolecmds.obj
 0003:00005c80       $SG21415                   100a0c80     cg_consolecmds.obj
 0003:00005c90       $SG21416                   100a0c90     cg_consolecmds.obj
 0003:00005ca0       $SG21417                   100a0ca0     cg_consolecmds.obj
 0003:00005ca8       $SG21418                   100a0ca8     cg_consolecmds.obj
 0003:00005cb0       $SG21419                   100a0cb0     cg_consolecmds.obj
 0003:00005cc0       $SG21420                   100a0cc0     cg_consolecmds.obj
 0003:00005cd0       $SG21421                   100a0cd0     cg_consolecmds.obj
 0003:00005cdc       $SG21422                   100a0cdc     cg_consolecmds.obj
 0003:00005cec       $SG21423                   100a0cec     cg_consolecmds.obj
 0003:00005cf8       $SG21424                   100a0cf8     cg_consolecmds.obj
 0003:00005d04       $SG21425                   100a0d04     cg_consolecmds.obj
 0003:00005d10       $SG21426                   100a0d10     cg_consolecmds.obj
 0003:00005d1c       $SG21427                   100a0d1c     cg_consolecmds.obj
 0003:00005d28       $SG21428                   100a0d28     cg_consolecmds.obj
 0003:00005d34       $SG21429                   100a0d34     cg_consolecmds.obj
 0003:00005d44       $SG21430                   100a0d44     cg_consolecmds.obj
 0003:00005d50       $SG21431                   100a0d50     cg_consolecmds.obj
 0003:00005d5c       $SG21432                   100a0d5c     cg_consolecmds.obj
 0003:00005d68       $SG21433                   100a0d68     cg_consolecmds.obj
 0003:00005d78       $SG21434                   100a0d78     cg_consolecmds.obj
 0003:00005d84       $SG21435                   100a0d84     cg_consolecmds.obj
 0003:00005d90       $SG21436                   100a0d90     cg_consolecmds.obj
 0003:00005da4       $SG21437                   100a0da4     cg_consolecmds.obj
 0003:00005db4       $SG21438                   100a0db4     cg_consolecmds.obj
 0003:00005dc0       $SG21439                   100a0dc0     cg_consolecmds.obj
 0003:00005dd0       $SG21440                   100a0dd0     cg_consolecmds.obj
 0003:00005ddc       $SG21441                   100a0ddc     cg_consolecmds.obj
 0003:00005de8       $SG21442                   100a0de8     cg_consolecmds.obj
 0003:00005df4       $SG21443                   100a0df4     cg_consolecmds.obj
 0003:00005e00       $SG21444                   100a0e00     cg_consolecmds.obj
 0003:00005e08       $SG21445                   100a0e08     cg_consolecmds.obj
 0003:00005e10       $SG21446                   100a0e10     cg_consolecmds.obj
 0003:00005e18       $SG21447                   100a0e18     cg_consolecmds.obj
 0003:00005e20       $SG21448                   100a0e20     cg_consolecmds.obj
 0003:00005e34       $SG21449                   100a0e34     cg_consolecmds.obj
 0003:00005e3c       $SG21450                   100a0e3c     cg_consolecmds.obj
 0003:00005e48       $SG21451                   100a0e48     cg_consolecmds.obj
 0003:00005e58       $SG21452                   100a0e58     cg_consolecmds.obj
 0003:00005e68       $SG21453                   100a0e68     cg_consolecmds.obj
 0003:00005e70       $SG21454                   100a0e70     cg_consolecmds.obj
 0003:00005e78       $SG21455                   100a0e78     cg_consolecmds.obj
 0003:00005e84       $SG21457                   100a0e84     cg_consolecmds.obj
 0003:00005e8c       $SG21458                   100a0e8c     cg_consolecmds.obj
 0003:00005e98       $SG21459                   100a0e98     cg_consolecmds.obj
 0003:00005ea4       $SG21460                   100a0ea4     cg_consolecmds.obj
 0003:00005eb0       $SG21461                   100a0eb0     cg_consolecmds.obj
 0003:00005ebc       $SG21462                   100a0ebc     cg_consolecmds.obj
 0003:00005ec8       $SG21463                   100a0ec8     cg_consolecmds.obj
 0003:00005ed0       $SG21464                   100a0ed0     cg_consolecmds.obj
 0003:00005ed8       $SG21465                   100a0ed8     cg_consolecmds.obj
 0003:00005ee4       $SG21466                   100a0ee4     cg_consolecmds.obj
 0003:00005ef0       $SG20943                   100a0ef0     cg_consolecmds.obj
 0003:00005efc       $SG20948                   100a0efc     cg_consolecmds.obj
 0003:00005f00       $SG20949                   100a0f00     cg_consolecmds.obj
 0003:00005f0c       $SG20954                   100a0f0c     cg_consolecmds.obj
 0003:00005f10       $SG20955                   100a0f10     cg_consolecmds.obj
 0003:00005f1c       $SG20963                   100a0f1c     cg_consolecmds.obj
 0003:00005f30       $SG20968                   100a0f30     cg_consolecmds.obj
 0003:00005f38       $SG20980                   100a0f38     cg_consolecmds.obj
 0003:00005f3c       $SG20991                   100a0f3c     cg_consolecmds.obj
 0003:00005f44       $SG21010                   100a0f44     cg_consolecmds.obj
 0003:00005f48       $SG21011                   100a0f48     cg_consolecmds.obj
 0003:00005f58       $SG21012                   100a0f58     cg_consolecmds.obj
 0003:00005f5c       $SG21013                   100a0f5c     cg_consolecmds.obj
 0003:00005f70       $SG21014                   100a0f70     cg_consolecmds.obj
 0003:00005f74       $SG21015                   100a0f74     cg_consolecmds.obj
 0003:00005f84       $SG21016                   100a0f84     cg_consolecmds.obj
 0003:00005f88       $SG21017                   100a0f88     cg_consolecmds.obj
 0003:00005f9c       $SG21018                   100a0f9c     cg_consolecmds.obj
 0003:00005fa0       $SG21019                   100a0fa0     cg_consolecmds.obj
 0003:00005fb4       $SG21020                   100a0fb4     cg_consolecmds.obj
 0003:00005fc0       $SG21024                   100a0fc0     cg_consolecmds.obj
 0003:00005fc4       $SG21025                   100a0fc4     cg_consolecmds.obj
 0003:00005fd4       $SG21026                   100a0fd4     cg_consolecmds.obj
 0003:00005fd8       $SG21027                   100a0fd8     cg_consolecmds.obj
 0003:00005fec       $SG21028                   100a0fec     cg_consolecmds.obj
 0003:00005ff0       $SG21029                   100a0ff0     cg_consolecmds.obj
 0003:00006000       $SG21030                   100a1000     cg_consolecmds.obj
 0003:00006004       $SG21031                   100a1004     cg_consolecmds.obj
 0003:00006018       $SG21032                   100a1018     cg_consolecmds.obj
 0003:0000601c       $SG21033                   100a101c     cg_consolecmds.obj
 0003:00006030       $SG21034                   100a1030     cg_consolecmds.obj
 0003:0000603c       $SG21042                   100a103c     cg_consolecmds.obj
 0003:00006048       $SG21050                   100a1048     cg_consolecmds.obj
 0003:00006054       $SG21058                   100a1054     cg_consolecmds.obj
 0003:00006060       $SG21066                   100a1060     cg_consolecmds.obj
 0003:0000606c       $SG21094                   100a106c     cg_consolecmds.obj
 0003:000060a0       $SG21095                   100a10a0     cg_consolecmds.obj
 0003:000060ac       $SG21100                   100a10ac     cg_consolecmds.obj
 0003:000060e4       $SG21103                   100a10e4     cg_consolecmds.obj
 0003:0000610c       $SG21105                   100a110c     cg_consolecmds.obj
 0003:00006138       $SG21106                   100a1138     cg_consolecmds.obj
 0003:00006144       $SG21111                   100a1144     cg_consolecmds.obj
 0003:00006164       $SG21112                   100a1164     cg_consolecmds.obj
 0003:00006170       $SG21117                   100a1170     cg_consolecmds.obj
 0003:000061a4       $SG21120                   100a11a4     cg_consolecmds.obj
 0003:000061c8       $SG21122                   100a11c8     cg_consolecmds.obj
 0003:000061f4       $SG21123                   100a11f4     cg_consolecmds.obj
 0003:00006200       $SG21129                   100a1200     cg_consolecmds.obj
 0003:00006224       $SG21130                   100a1224     cg_consolecmds.obj
 0003:0000622c       $SG21134                   100a122c     cg_consolecmds.obj
 0003:00006238       $SG21138                   100a1238     cg_consolecmds.obj
 0003:00006240       $SG21147                   100a1240     cg_consolecmds.obj
 0003:0000624c       $SG21159                   100a124c     cg_consolecmds.obj
 0003:00006254       $SG21172                   100a1254     cg_consolecmds.obj
 0003:0000625c       $SG21191                   100a125c     cg_consolecmds.obj
 0003:00006264       $SG21208                   100a1264     cg_consolecmds.obj
 0003:00006278       $SG21209                   100a1278     cg_consolecmds.obj
 0003:0000628c       $SG21210                   100a128c     cg_consolecmds.obj
 0003:000062a0       $SG21211                   100a12a0     cg_consolecmds.obj
 0003:000062b4       $SG21212                   100a12b4     cg_consolecmds.obj
 0003:000062c8       $SG21213                   100a12c8     cg_consolecmds.obj
 0003:000062dc       $SG21223                   100a12dc     cg_consolecmds.obj
 0003:000062ec       $SG21224                   100a12ec     cg_consolecmds.obj
 0003:000062fc       $SG21225                   100a12fc     cg_consolecmds.obj
 0003:00006304       $SG21226                   100a1304     cg_consolecmds.obj
 0003:0000630c       $SG21227                   100a130c     cg_consolecmds.obj
 0003:00006324       $SG21229                   100a1324     cg_consolecmds.obj
 0003:00006334       $SG21230                   100a1334     cg_consolecmds.obj
 0003:00006344       $SG21259                   100a1344     cg_consolecmds.obj
 0003:00006348       $SG21281                   100a1348     cg_consolecmds.obj
 0003:0000634c       $SG21282                   100a134c     cg_consolecmds.obj
 0003:00006360       $SG21283                   100a1360     cg_consolecmds.obj
 0003:0000637c       $SG21285                   100a137c     cg_consolecmds.obj
 0003:0000638c       $SG21290                   100a138c     cg_consolecmds.obj
 0003:00006390       $SG21291                   100a1390     cg_consolecmds.obj
 0003:000063a4       $SG21292                   100a13a4     cg_consolecmds.obj
 0003:000063c0       $SG21300                   100a13c0     cg_consolecmds.obj
 0003:000063cc       $SG21301                   100a13cc     cg_consolecmds.obj
 0003:000063e0       $SG21302                   100a13e0     cg_consolecmds.obj
 0003:000063ec       $SG21303                   100a13ec     cg_consolecmds.obj
 0003:00006400       $SG21304                   100a1400     cg_consolecmds.obj
 0003:00006410       $SG21308                   100a1410     cg_consolecmds.obj
 0003:0000641c       $SG21309                   100a141c     cg_consolecmds.obj
 0003:00006430       $SG21310                   100a1430     cg_consolecmds.obj
 0003:00006440       $SG21314                   100a1440     cg_consolecmds.obj
 0003:0000644c       $SG21315                   100a144c     cg_consolecmds.obj
 0003:00006460       $SG21316                   100a1460     cg_consolecmds.obj
 0003:00006470       $SG21320                   100a1470     cg_consolecmds.obj
 0003:00006478       $SG21321                   100a1478     cg_consolecmds.obj
 0003:0000648c       $SG21322                   100a148c     cg_consolecmds.obj
 0003:0000649c       $SG21326                   100a149c     cg_consolecmds.obj
 0003:000064a8       $SG21327                   100a14a8     cg_consolecmds.obj
 0003:000064bc       $SG21328                   100a14bc     cg_consolecmds.obj
 0003:000064cc       $SG21332                   100a14cc     cg_consolecmds.obj
 0003:000064dc       $SG21333                   100a14dc     cg_consolecmds.obj
 0003:000064f0       $SG21334                   100a14f0     cg_consolecmds.obj
 0003:00006500       $SG21338                   100a1500     cg_consolecmds.obj
 0003:00006510       $SG21339                   100a1510     cg_consolecmds.obj
 0003:00006524       $SG21340                   100a1524     cg_consolecmds.obj
 0003:00006534       $SG21344                   100a1534     cg_consolecmds.obj
 0003:00006540       $SG21345                   100a1540     cg_consolecmds.obj
 0003:00006554       $SG21349                   100a1554     cg_consolecmds.obj
 0003:0000656c       $SG21353                   100a156c     cg_consolecmds.obj
 0003:00006580       $SG21357                   100a1580     cg_consolecmds.obj
 0003:0000658c       $SG21361                   100a158c     cg_consolecmds.obj
 0003:000065a4       $SG21365                   100a15a4     cg_consolecmds.obj
 0003:000065bc       $SG21372                   100a15bc     cg_consolecmds.obj
 0003:000065cc       $SG21377                   100a15cc     cg_consolecmds.obj
 0003:000065d8       $SG21381                   100a15d8     cg_consolecmds.obj
 0003:000065dc       $SG21382                   100a15dc     cg_consolecmds.obj
 0003:000065ec       $SG21383                   100a15ec     cg_consolecmds.obj
 0003:000065f0       $SG21384                   100a15f0     cg_consolecmds.obj
 0003:00006600       $SG21385                   100a1600     cg_consolecmds.obj
 0003:00006604       $SG21386                   100a1604     cg_consolecmds.obj
 0003:00006614       $SG21387                   100a1614     cg_consolecmds.obj
 0003:00006618       $SG21388                   100a1618     cg_consolecmds.obj
 0003:00006628       $SG21389                   100a1628     cg_consolecmds.obj
 0003:0000662c       $SG21390                   100a162c     cg_consolecmds.obj
 0003:00006640       $SG21391                   100a1640     cg_consolecmds.obj
 0003:00006644       $SG21392                   100a1644     cg_consolecmds.obj
 0003:00006658       _commands                  100a1658     cg_consolecmds.obj
 0003:00006820       _compatCommands            100a1820     cg_consolecmds.obj
 0003:00006870       $SG21485                   100a1870     cg_consolecmds.obj
 0003:00006878       $SG21486                   100a1878     cg_consolecmds.obj
 0003:00006884       $SG21487                   100a1884     cg_consolecmds.obj
 0003:0000688c       $SG21488                   100a188c     cg_consolecmds.obj
 0003:00006894       $SG21489                   100a1894     cg_consolecmds.obj
 0003:000068a0       $SG21490                   100a18a0     cg_consolecmds.obj
 0003:000068b0       $SG21491                   100a18b0     cg_consolecmds.obj
 0003:000068bc       $SG21492                   100a18bc     cg_consolecmds.obj
 0003:000068c0       $SG21493                   100a18c0     cg_consolecmds.obj
 0003:000068cc       $SG21494                   100a18cc     cg_consolecmds.obj
 0003:000068d4       $SG21495                   100a18d4     cg_consolecmds.obj
 0003:000068e0       $SG21496                   100a18e0     cg_consolecmds.obj
 0003:000068ec       $SG21497                   100a18ec     cg_consolecmds.obj
 0003:000068f8       $SG21498                   100a18f8     cg_consolecmds.obj
 0003:00006904       $SG21499                   100a1904     cg_consolecmds.obj
 0003:0000690c       $SG21500                   100a190c     cg_consolecmds.obj
 0003:00006914       $SG21501                   100a1914     cg_consolecmds.obj
 0003:0000691c       $SG21502                   100a191c     cg_consolecmds.obj
 0003:00006920       $SG21503                   100a1920     cg_consolecmds.obj
 0003:00006928       $SG21504                   100a1928     cg_consolecmds.obj
 0003:00006934       $SG21505                   100a1934     cg_consolecmds.obj
 0003:00006940       $SG21506                   100a1940     cg_consolecmds.obj
 0003:00006950       $SG21507                   100a1950     cg_consolecmds.obj
 0003:00006958       $SG21508                   100a1958     cg_consolecmds.obj
 0003:00006960       $SG21509                   100a1960     cg_consolecmds.obj
 0003:0000696c       $SG21510                   100a196c     cg_consolecmds.obj
 0003:00006974       $SG21511                   100a1974     cg_consolecmds.obj
 0003:0000697c       $SG21512                   100a197c     cg_consolecmds.obj
 0003:00006984       $SG21513                   100a1984     cg_consolecmds.obj
 0003:0000698c       $SG21514                   100a198c     cg_consolecmds.obj
 0003:00006990       $SG21515                   100a1990     cg_consolecmds.obj
 0003:0000699c       $SG21516                   100a199c     cg_consolecmds.obj
 0003:000069a4       $SG21517                   100a19a4     cg_consolecmds.obj
 0003:000069b4       $SG21518                   100a19b4     cg_consolecmds.obj
 0003:000069b8       $SG21519                   100a19b8     cg_consolecmds.obj
 0003:000069c4       $SG21520                   100a19c4     cg_consolecmds.obj
 0003:000069d4       $SG21521                   100a19d4     cg_consolecmds.obj
 0003:000069e0       $SG21522                   100a19e0     cg_consolecmds.obj
 0003:000069e8       $SG21523                   100a19e8     cg_consolecmds.obj
 0003:000069f0       $SG21524                   100a19f0     cg_consolecmds.obj
 0003:000069f8       $SG21525                   100a19f8     cg_consolecmds.obj
 0003:00006a00       $SG21526                   100a1a00     cg_consolecmds.obj
 0003:00006a08       $SG21527                   100a1a08     cg_consolecmds.obj
 0003:00006a10       $SG21528                   100a1a10     cg_consolecmds.obj
 0003:00006a18       $SG21529                   100a1a18     cg_consolecmds.obj
 0003:00006a20       $SG21530                   100a1a20     cg_consolecmds.obj
 0003:00006a28       $SG21531                   100a1a28     cg_consolecmds.obj
 0003:00006a30       $SG21532                   100a1a30     cg_consolecmds.obj
 0003:00006a38       _cg_speedometerHistoryHead 100a1a38     cg_draw.obj
 0003:00006a3c       $SG20991                   100a1a3c     cg_draw.obj
 0003:00006a50       $SG20993                   100a1a50     cg_draw.obj
 0003:00006a68       $SG20995                   100a1a68     cg_draw.obj
 0003:00006a80       $SG20997                   100a1a80     cg_draw.obj
 0003:00006a98       $SG21374                   100a1a98     cg_draw.obj
 0003:00006aa0       $SG21376                   100a1aa0     cg_draw.obj
 0003:00006aa4       $SG21396                   100a1aa4     cg_draw.obj
 0003:00006aac       $SG21553                   100a1aac     cg_draw.obj
 0003:00006ab4       $SG21554                   100a1ab4     cg_draw.obj
 0003:00006abc       $SG21742                   100a1abc     cg_draw.obj
 0003:00006ac0       $SG21748                   100a1ac0     cg_draw.obj
 0003:00006ad8       $SG21772                   100a1ad8     cg_draw.obj
 0003:00006ae0       $SG21859                   100a1ae0     cg_draw.obj
 0003:00006ae8       $SG21861                   100a1ae8     cg_draw.obj
 0003:00006af0       $SG22018                   100a1af0     cg_draw.obj
 0003:00006af4       $SG22076                   100a1af4     cg_draw.obj
 0003:00006afc       $SG22080                   100a1afc     cg_draw.obj
 0003:00006b00       $SG22131                   100a1b00     cg_draw.obj
 0003:00006b04       $SG22151                   100a1b04     cg_draw.obj
 0003:00006b14       $SG22234                   100a1b14     cg_draw.obj
 0003:00006b1c       $SG22237                   100a1b1c     cg_draw.obj
 0003:00006b24       $SG22365                   100a1b24     cg_draw.obj
 0003:00006b28       $SG22393                   100a1b28     cg_draw.obj
 0003:00006b40       $SG22395                   100a1b40     cg_draw.obj
 0003:00006b50       $SG22442                   100a1b50     cg_draw.obj
 0003:00006b54       $SG22490                   100a1b54     cg_draw.obj
 0003:00006b68       $SG22617                   100a1b68     cg_draw.obj
 0003:00006b6c       $SG22618                   100a1b6c     cg_draw.obj
 0003:00006b70       $SG22620                   100a1b70     cg_draw.obj
 0003:00006b74       $SG22671                   100a1b74     cg_draw.obj
 0003:00006b80       $SG22672                   100a1b80     cg_draw.obj
 0003:00006b94       $SG22673                   100a1b94     cg_draw.obj
 0003:00006bac       $SG22674                   100a1bac     cg_draw.obj
 0003:00006bc0       $SG22675                   100a1bc0     cg_draw.obj
 0003:00006bd4       $SG22676                   100a1bd4     cg_draw.obj
 0003:00006be8       $SG22677                   100a1be8     cg_draw.obj
 0003:00006c00       $SG22686                   100a1c00     cg_draw.obj
 0003:00006c0c       $SG22689                   100a1c0c     cg_draw.obj
 0003:00006c1c       $SG22691                   100a1c1c     cg_draw.obj
 0003:00006c44       $SG22713                   100a1c44     cg_draw.obj
 0003:00006c60       $SG22714                   100a1c60     cg_draw.obj
 0003:00006c80       $SG22728                   100a1c80     cg_draw.obj
 0003:00006ca0       $SG22735                   100a1ca0     cg_draw.obj
 0003:00006cb0       $SG22737                   100a1cb0     cg_draw.obj
 0003:00006cc0       $SG22739                   100a1cc0     cg_draw.obj
 0003:00006cd0       $SG22741                   100a1cd0     cg_draw.obj
 0003:00006ce0       $SG22743                   100a1ce0     cg_draw.obj
 0003:00006cf4       $SG22745                   100a1cf4     cg_draw.obj
 0003:00006d08       $SG22747                   100a1d08     cg_draw.obj
 0003:00006d1c       $SG22749                   100a1d1c     cg_draw.obj
 0003:00006d34       $SG22751                   100a1d34     cg_draw.obj
 0003:00006d44       $SG22753                   100a1d44     cg_draw.obj
 0003:00006d58       $SG22755                   100a1d58     cg_draw.obj
 0003:00006d6c       $SG22757                   100a1d6c     cg_draw.obj
 0003:00006d80       $SG22759                   100a1d80     cg_draw.obj
 0003:00006d94       $SG22762                   100a1d94     cg_draw.obj
 0003:00006da4       $SG22763                   100a1da4     cg_draw.obj
 0003:00006db0       ?firstTime@?1??CG_DrawScoreboard@@9@9 100a1db0     cg_draw.obj
 0003:00006db4       $SG22785                   100a1db4     cg_draw.obj
 0003:00006dc4       $SG22786                   100a1dc4     cg_draw.obj
 0003:00006dd0       $SG22815                   100a1dd0     cg_draw.obj
 0003:00006ddc       $SG22828                   100a1ddc     cg_draw.obj
 0003:00006de8       $SG22829                   100a1de8     cg_draw.obj
 0003:00006dfc       $SG22848                   100a1dfc     cg_draw.obj
 0003:00006e18       $SG22849                   100a1e18     cg_draw.obj
 0003:00006e2c       $SG22861                   100a1e2c     cg_draw.obj
 0003:00006e30       $SG22870                   100a1e30     cg_draw.obj
 0003:00006e38       $SG22877                   100a1e38     cg_draw.obj
 0003:00006e48       $SG22878                   100a1e48     cg_draw.obj
 0003:00006e58       $SG22879                   100a1e58     cg_draw.obj
 0003:00006e6c       $SG22880                   100a1e6c     cg_draw.obj
 0003:00006e80       $SG22882                   100a1e80     cg_draw.obj
 0003:00006e88       $SG22941                   100a1e88     cg_draw.obj
 0003:00006e94       $SG22944                   100a1e94     cg_draw.obj
 0003:00006ea0       $SG22947                   100a1ea0     cg_draw.obj
 0003:00006eac       $SG22954                   100a1eac     cg_draw.obj
 0003:00006ebc       $SG22955                   100a1ebc     cg_draw.obj
 0003:00006ecc       $SG22956                   100a1ecc     cg_draw.obj
 0003:00006ee0       $SG22957                   100a1ee0     cg_draw.obj
 0003:00006ef4       $SG22960                   100a1ef4     cg_draw.obj
 0003:00006f04       $SG22961                   100a1f04     cg_draw.obj
 0003:00006f14       $SG22966                   100a1f14     cg_draw.obj
 0003:00006f18       $SG22967                   100a1f18     cg_draw.obj
 0003:00006f28       $SG22979                   100a1f28     cg_draw.obj
 0003:00006f38       $SG22987                   100a1f38     cg_draw.obj
 0003:00006f5c       $SG22995                   100a1f5c     cg_draw.obj
 0003:00006f60       $SG22997                   100a1f60     cg_draw.obj
 0003:00006f64       $SG22999                   100a1f64     cg_draw.obj
 0003:00006f68       $SG23001                   100a1f68     cg_draw.obj
 0003:00006f6c       $SG23003                   100a1f6c     cg_draw.obj
 0003:00006f70       $SG23005                   100a1f70     cg_draw.obj
 0003:00006f74       $SG23046                   100a1f74     cg_draw.obj
 0003:00006f84       $SG23049                   100a1f84     cg_draw.obj
 0003:00006f94       $SG23052                   100a1f94     cg_draw.obj
 0003:00006fa8       $SG23053                   100a1fa8     cg_draw.obj
 0003:00006fb8       $SG23073                   100a1fb8     cg_draw.obj
 0003:00006fcc       $SG23077                   100a1fcc     cg_draw.obj
 0003:00006fe8       $SG23078                   100a1fe8     cg_draw.obj
 0003:00006ff4       $SG23080                   100a1ff4     cg_draw.obj
 0003:00006ffc       $SG23082                   100a1ffc     cg_draw.obj
 0003:00007000       $SG23083                   100a2000     cg_draw.obj
 0003:00007008       $SG23084                   100a2008     cg_draw.obj
 0003:00007024       $SG23093                   100a2024     cg_draw.obj
 0003:00007030       $SG23107                   100a2030     cg_draw.obj
 0003:00007034       $SG23108                   100a2034     cg_draw.obj
 0003:00007038       $SG23110                   100a2038     cg_draw.obj
 0003:00007048       $SG23119                   100a2048     cg_draw.obj
 0003:00007054       $SG23140                   100a2054     cg_draw.obj
 0003:00007058       $SG23141                   100a2058     cg_draw.obj
 0003:0000705c       $SG23142                   100a205c     cg_draw.obj
 0003:00007070       $SG23183                   100a2070     cg_draw.obj
 0003:00007078       $SG23185                   100a2078     cg_draw.obj
 0003:0000707c       $SG23186                   100a207c     cg_draw.obj
 0003:00007084       $SG23189                   100a2084     cg_draw.obj
 0003:000070a4       $SG23191                   100a20a4     cg_draw.obj
 0003:000070c0       $SG23192                   100a20c0     cg_draw.obj
 0003:000070dc       $SG23193                   100a20dc     cg_draw.obj
 0003:000070f4       $SG23194                   100a20f4     cg_draw.obj
 0003:0000710c       $SG23195                   100a210c     cg_draw.obj
 0003:00007128       $SG23212                   100a2128     cg_draw.obj
 0003:00007138       $SG23217                   100a2138     cg_draw.obj
 0003:00007140       $SG23218                   100a2140     cg_draw.obj
 0003:00007148       $SG23219                   100a2148     cg_draw.obj
 0003:00007150       $SG23220                   100a2150     cg_draw.obj
 0003:00007158       $SG23223                   100a2158     cg_draw.obj
 0003:00007160       $SG23224                   100a2160     cg_draw.obj
 0003:00007164       $SG23225                   100a2164     cg_draw.obj
 0003:0000716c       $SG23226                   100a216c     cg_draw.obj
 0003:00007174       $SG23227                   100a2174     cg_draw.obj
 0003:00007178       $SG23228                   100a2178     cg_draw.obj
 0003:00007180       $SG23229                   100a2180     cg_draw.obj
 0003:00007188       $SG23230                   100a2188     cg_draw.obj
 0003:00007190       $SG23231                   100a2190     cg_draw.obj
 0003:00007198       $SG23232                   100a2198     cg_draw.obj
 0003:000071a0       $SG23233                   100a21a0     cg_draw.obj
 0003:000071a8       $SG23238                   100a21a8     cg_draw.obj
 0003:000071b4       $SG23278                   100a21b4     cg_draw.obj
 0003:000071c4       $SG23325                   100a21c4     cg_draw.obj
 0003:000071e8       $SG23332                   100a21e8     cg_draw.obj
 0003:00007200       _cgAdjustFrom640Mode       100a2200     cg_drawtools.obj
 0003:00007204       ?red@?1??CG_TeamColor@@9@9 100a2204     cg_drawtools.obj
 0003:00007214       ?blue@?1??CG_TeamColor@@9@9 100a2214     cg_drawtools.obj
 0003:00007224       ?other@?1??CG_TeamColor@@9@9 100a2224     cg_drawtools.obj
 0003:00007234       ?spectator@?1??CG_TeamColor@@9@9 100a2234     cg_drawtools.obj
 0003:00007248       _propMap                   100a2248     cg_drawtools.obj
 0003:00007848       _propMapB                  100a2848     cg_drawtools.obj
 0003:00007980       ?seed@?1??CG_SmokePuff@@9@9 100a2980     cg_effects.obj
 0003:00007984       $SG21019                   100a2984     cg_effects.obj
 0003:000079a4       $SG21095                   100a29a4     cg_effects.obj
 0003:000079c0       $SG21158                   100a29c0     cg_ents.obj
 0003:000079dc       $SG21160                   100a29dc     cg_ents.obj
 0003:000079ec       $SG21176                   100a29ec     cg_ents.obj
 0003:000079f8       $SG21263                   100a29f8     cg_ents.obj
 0003:00007a2c       $SG21406                   100a2a2c     cg_ents.obj
 0003:00007a44       $SG20998                   100a2a44     cg_event.obj
 0003:00007a48       $SG21046                   100a2a48     cg_event.obj
 0003:00007a54       $SG21050                   100a2a54     cg_event.obj
 0003:00007a5c       $SG21053                   100a2a5c     cg_event.obj
 0003:00007a64       $SG21056                   100a2a64     cg_event.obj
 0003:00007a6c       $SG21059                   100a2a6c     cg_event.obj
 0003:00007a74       $SG21062                   100a2a74     cg_event.obj
 0003:00007a7c       $SG21065                   100a2a7c     cg_event.obj
 0003:00007a84       $SG21068                   100a2a84     cg_event.obj
 0003:00007a8c       $SG21071                   100a2a8c     cg_event.obj
 0003:00007a94       $SG21074                   100a2a94     cg_event.obj
 0003:00007a9c       $SG21075                   100a2a9c     cg_event.obj
 0003:00007aa4       $SG21076                   100a2aa4     cg_event.obj
 0003:00007aac       $SG21332                   100a2aac     cg_event.obj
 0003:00007ab0       $SG21333                   100a2ab0     cg_event.obj
 0003:00007ab4       $SG21427                   100a2ab4     cg_event.obj
 0003:00007ad8       $SG21435                   100a2ad8     cg_event.obj
 0003:00007ae4       $SG21437                   100a2ae4     cg_event.obj
 0003:00007af0       $SG21439                   100a2af0     cg_event.obj
 0003:00007b00       $SG21441                   100a2b00     cg_event.obj
 0003:00007b14       $SG21443                   100a2b14     cg_event.obj
 0003:00007b1c       $SG21445                   100a2b1c     cg_event.obj
 0003:00007b3c       $SG21447                   100a2b3c     cg_event.obj
 0003:00007b4c       $SG21449                   100a2b4c     cg_event.obj
 0003:00007b64       $SG21453                   100a2b64     cg_event.obj
 0003:00007b7c       $SG21457                   100a2b7c     cg_event.obj
 0003:00007b98       $SG21460                   100a2b98     cg_event.obj
 0003:00007bb4       $SG21461                   100a2bb4     cg_event.obj
 0003:00007bd0       $SG21465                   100a2bd0     cg_event.obj
 0003:00007be0       $SG21468                   100a2be0     cg_event.obj
 0003:00007bf0       $SG21469                   100a2bf0     cg_event.obj
 0003:00007c00       $SG21473                   100a2c00     cg_event.obj
 0003:00007c10       $SG21476                   100a2c10     cg_event.obj
 0003:00007c20       $SG21477                   100a2c20     cg_event.obj
 0003:00007c30       $SG21479                   100a2c30     cg_event.obj
 0003:00007c50       $SG21483                   100a2c50     cg_event.obj
 0003:00007c64       $SG21486                   100a2c64     cg_event.obj
 0003:00007c7c       $SG21487                   100a2c7c     cg_event.obj
 0003:00007c90       $SG21491                   100a2c90     cg_event.obj
 0003:00007ca0       $SG21494                   100a2ca0     cg_event.obj
 0003:00007cb0       $SG21495                   100a2cb0     cg_event.obj
 0003:00007cc0       $SG21498                   100a2cc0     cg_event.obj
 0003:00007cc8       $SG21502                   100a2cc8     cg_event.obj
 0003:00007ce8       $SG21503                   100a2ce8     cg_event.obj
 0003:00007cf8       $SG21511                   100a2cf8     cg_event.obj
 0003:00007d08       $SG21513                   100a2d08     cg_event.obj
 0003:00007d18       $SG21515                   100a2d18     cg_event.obj
 0003:00007d30       $SG21517                   100a2d30     cg_event.obj
 0003:00007d44       $SG21519                   100a2d44     cg_event.obj
 0003:00007d48       $SG21520                   100a2d48     cg_event.obj
 0003:00007d54       $SG21522                   100a2d54     cg_event.obj
 0003:00007d64       $SG21523                   100a2d64     cg_event.obj
 0003:00007d70       $SG21525                   100a2d70     cg_event.obj
 0003:00007d74       $SG21526                   100a2d74     cg_event.obj
 0003:00007d80       $SG21528                   100a2d80     cg_event.obj
 0003:00007d90       $SG21529                   100a2d90     cg_event.obj
 0003:00007d9c       $SG21531                   100a2d9c     cg_event.obj
 0003:00007dac       $SG21532                   100a2dac     cg_event.obj
 0003:00007dbc       $SG21534                   100a2dbc     cg_event.obj
 0003:00007dcc       $SG21535                   100a2dcc     cg_event.obj
 0003:00007ddc       $SG21537                   100a2ddc     cg_event.obj
 0003:00007dec       $SG21539                   100a2dec     cg_event.obj
 0003:00007e00       $SG21541                   100a2e00     cg_event.obj
 0003:00007e10       $SG21542                   100a2e10     cg_event.obj
 0003:00007e18       $SG21544                   100a2e18     cg_event.obj
 0003:00007e28       $SG21546                   100a2e28     cg_event.obj
 0003:00007e40       $SG21547                   100a2e40     cg_event.obj
 0003:00007e4c       $SG21549                   100a2e4c     cg_event.obj
 0003:00007e60       $SG21550                   100a2e60     cg_event.obj
 0003:00007e70       $SG21552                   100a2e70     cg_event.obj
 0003:00007e7c       $SG21553                   100a2e7c     cg_event.obj
 0003:00007e90       $SG21555                   100a2e90     cg_event.obj
 0003:00007ea0       $SG21557                   100a2ea0     cg_event.obj
 0003:00007eb0       $SG21558                   100a2eb0     cg_event.obj
 0003:00007ec4       $SG21560                   100a2ec4     cg_event.obj
 0003:00007ed4       $SG21562                   100a2ed4     cg_event.obj
 0003:00007ee0       $SG21564                   100a2ee0     cg_event.obj
 0003:00007eec       $SG21585                   100a2eec     cg_event.obj
 0003:00007efc       $SG21587                   100a2efc     cg_event.obj
 0003:00007f04       $SG21612                   100a2f04     cg_event.obj
 0003:00007f14       $SG21615                   100a2f14     cg_event.obj
 0003:00007f24       $SG21618                   100a2f24     cg_event.obj
 0003:00007f34       $SG21619                   100a2f34     cg_event.obj
 0003:00007f44       $SG21644                   100a2f44     cg_event.obj
 0003:00007f5c       $SG21645                   100a2f5c     cg_event.obj
 0003:00007f78       $SG21722                   100a2f78     cg_event.obj
 0003:00007f8c       $SG21725                   100a2f8c     cg_event.obj
 0003:00007f98       $SG21728                   100a2f98     cg_event.obj
 0003:00007fb0       $SG21731                   100a2fb0     cg_event.obj
 0003:00007fc0       $SG21736                   100a2fc0     cg_event.obj
 0003:00007fd0       $SG21740                   100a2fd0     cg_event.obj
 0003:00007fe4       $SG21744                   100a2fe4     cg_event.obj
 0003:00007ff8       $SG21748                   100a2ff8     cg_event.obj
 0003:0000800c       $SG21752                   100a300c     cg_event.obj
 0003:0000801c       $SG21756                   100a301c     cg_event.obj
 0003:0000802c       $SG21760                   100a302c     cg_event.obj
 0003:00008038       $SG21764                   100a3038     cg_event.obj
 0003:00008048       $SG21768                   100a3048     cg_event.obj
 0003:00008058       $SG21769                   100a3058     cg_event.obj
 0003:00008068       $SG21773                   100a3068     cg_event.obj
 0003:00008078       $SG21774                   100a3078     cg_event.obj
 0003:00008084       $SG21778                   100a3084     cg_event.obj
 0003:00008094       $SG21779                   100a3094     cg_event.obj
 0003:000080a0       $SG21782                   100a30a0     cg_event.obj
 0003:000080ac       $SG21783                   100a30ac     cg_event.obj
 0003:000080b8       $SG21786                   100a30b8     cg_event.obj
 0003:000080c4       $SG21788                   100a30c4     cg_event.obj
 0003:000080d0       $SG21791                   100a30d0     cg_event.obj
 0003:000080e0       $SG21793                   100a30e0     cg_event.obj
 0003:000080e4       $SG21796                   100a30e4     cg_event.obj
 0003:000080f4       $SG21798                   100a30f4     cg_event.obj
 0003:000080f8       $SG21801                   100a30f8     cg_event.obj
 0003:0000810c       $SG21803                   100a310c     cg_event.obj
 0003:00008118       $SG21806                   100a3118     cg_event.obj
 0003:0000812c       $SG21808                   100a312c     cg_event.obj
 0003:00008138       $SG21811                   100a3138     cg_event.obj
 0003:0000814c       $SG21813                   100a314c     cg_event.obj
 0003:00008158       $SG21816                   100a3158     cg_event.obj
 0003:0000816c       $SG21818                   100a316c     cg_event.obj
 0003:00008178       $SG21821                   100a3178     cg_event.obj
 0003:00008188       $SG21824                   100a3188     cg_event.obj
 0003:00008198       $SG21827                   100a3198     cg_event.obj
 0003:000081a8       $SG21830                   100a31a8     cg_event.obj
 0003:000081b8       $SG21831                   100a31b8     cg_event.obj
 0003:000081c4       $SG21834                   100a31c4     cg_event.obj
 0003:000081d4       $SG21849                   100a31d4     cg_event.obj
 0003:000081ec       $SG21856                   100a31ec     cg_event.obj
 0003:000081f8       $SG21860                   100a31f8     cg_event.obj
 0003:0000820c       $SG21863                   100a320c     cg_event.obj
 0003:0000821c       $SG21867                   100a321c     cg_event.obj
 0003:0000822c       $SG21870                   100a322c     cg_event.obj
 0003:0000823c       $SG21873                   100a323c     cg_event.obj
 0003:0000824c       $SG21876                   100a324c     cg_event.obj
 0003:0000825c       $SG21879                   100a325c     cg_event.obj
 0003:0000826c       $SG21882                   100a326c     cg_event.obj
 0003:0000827c       $SG21885                   100a327c     cg_event.obj
 0003:0000828c       $SG21888                   100a328c     cg_event.obj
 0003:0000829c       $SG21891                   100a329c     cg_event.obj
 0003:000082ac       $SG21894                   100a32ac     cg_event.obj
 0003:000082bc       $SG21897                   100a32bc     cg_event.obj
 0003:000082cc       $SG21900                   100a32cc     cg_event.obj
 0003:000082dc       $SG21903                   100a32dc     cg_event.obj
 0003:000082ec       $SG21906                   100a32ec     cg_event.obj
 0003:000082fc       $SG21909                   100a32fc     cg_event.obj
 0003:0000830c       $SG21912                   100a330c     cg_event.obj
 0003:0000831c       $SG21915                   100a331c     cg_event.obj
 0003:00008334       $SG21918                   100a3334     cg_event.obj
 0003:0000834c       $SG21921                   100a334c     cg_event.obj
 0003:0000835c       $SG21924                   100a335c     cg_event.obj
 0003:00008370       $SG21927                   100a3370     cg_event.obj
 0003:00008384       $SG21932                   100a3384     cg_event.obj
 0003:000083a0       $SG21939                   100a33a0     cg_event.obj
 0003:000083bc       $SG21942                   100a33bc     cg_event.obj
 0003:000083cc       $SG21945                   100a33cc     cg_event.obj
 0003:000083e0       $SG21948                   100a33e0     cg_event.obj
 0003:000083f0       $SG21951                   100a33f0     cg_event.obj
 0003:00008404       $SG21954                   100a3404     cg_event.obj
 0003:00008410       $SG21959                   100a3410     cg_event.obj
 0003:00008424       $SG21962                   100a3424     cg_event.obj
 0003:00008434       $SG21965                   100a3434     cg_event.obj
 0003:00008444       $SG21969                   100a3444     cg_event.obj
 0003:0000844c       $SG21972                   100a344c     cg_event.obj
 0003:0000845c       $SG21975                   100a345c     cg_event.obj
 0003:0000846c       $SG21979                   100a346c     cg_event.obj
 0003:00008488       $SG21982                   100a3488     cg_event.obj
 0003:00008498       $SG21985                   100a3498     cg_event.obj
 0003:000084ac       $SG21988                   100a34ac     cg_event.obj
 0003:000084c4       $SG21991                   100a34c4     cg_event.obj
 0003:000084d4       $SG21996                   100a34d4     cg_event.obj
 0003:000084e8       $SG21999                   100a34e8     cg_event.obj
 0003:00008500       $SG22002                   100a3500     cg_event.obj
 0003:0000850c       $SG22005                   100a350c     cg_event.obj
 0003:00008520       $SG22008                   100a3520     cg_event.obj
 0003:00008534       $SG22013                   100a3534     cg_event.obj
 0003:00008548       $SG22018                   100a3548     cg_event.obj
 0003:00008560       $SG22064                   100a3560     cg_event.obj
 0003:00008578       $SG22068                   100a3578     cg_event.obj
 0003:00008584       $SG22071                   100a3584     cg_event.obj
 0003:00008590       $SG22073                   100a3590     cg_event.obj
 0003:000085a8       $SG22077                   100a35a8     cg_event.obj
 0003:000085b4       $SG22080                   100a35b4     cg_event.obj
 0003:000085c0       $SG22093                   100a35c0     cg_event.obj
 0003:000085cc       $SG22097                   100a35cc     cg_event.obj
 0003:000085d8       $SG22098                   100a35d8     cg_event.obj
 0003:000085e8       $SG22101                   100a35e8     cg_event.obj
 0003:000085f4       $SG22102                   100a35f4     cg_event.obj
 0003:00008600       $SG22105                   100a3600     cg_event.obj
 0003:00008610       $SG22108                   100a3610     cg_event.obj
 0003:00008624       $SG22112                   100a3624     cg_event.obj
 0003:0000863c       $SG22116                   100a363c     cg_event.obj
 0003:00008650       $SG22120                   100a3650     cg_event.obj
 0003:00008668       $SG22124                   100a3668     cg_event.obj
 0003:00008678       $SG22128                   100a3678     cg_event.obj
 0003:00008688       $SG22131                   100a3688     cg_event.obj
 0003:00008698       $SG22132                   100a3698     cg_event.obj
 0003:000086b0       $SG22137                   100a36b0     cg_event.obj
 0003:000086bc       $SG22141                   100a36bc     cg_event.obj
 0003:000086c8       $SG22144                   100a36c8     cg_event.obj
 0003:000086d4       $SG22147                   100a36d4     cg_event.obj
 0003:000086ec       $SG22150                   100a36ec     cg_event.obj
 0003:000086fc       $SG22154                   100a36fc     cg_event.obj
 0003:00008710       $SG22158                   100a3710     cg_event.obj
 0003:00008720       $SG22162                   100a3720     cg_event.obj
 0003:0000872c       $SG22165                   100a372c     cg_event.obj
 0003:0000873c       $SG22169                   100a373c     cg_event.obj
 0003:00008750       $SG22173                   100a3750     cg_event.obj
 0003:0000875c       $SG22174                   100a375c     cg_event.obj
 0003:00008770       $SG20977                   100a3770     cg_info.obj
 0003:00008780       $SG20978                   100a3780     cg_info.obj
 0003:00008788       $SG20979                   100a3788     cg_info.obj
 0003:00008790       $SG20980                   100a3790     cg_info.obj
 0003:000087a0       $SG20981                   100a37a0     cg_info.obj
 0003:000087ac       $SG20982                   100a37ac     cg_info.obj
 0003:000087c0       $SG20983                   100a37c0     cg_info.obj
 0003:000087d0       $SG20984                   100a37d0     cg_info.obj
 0003:000087dc       $SG20985                   100a37dc     cg_info.obj
 0003:000087e8       $SG20986                   100a37e8     cg_info.obj
 0003:000087f4       $SG20987                   100a37f4     cg_info.obj
 0003:00008800       $SG20988                   100a3800     cg_info.obj
 0003:00008814       $SG20989                   100a3814     cg_info.obj
 0003:00008820       $SG21007                   100a3820     cg_info.obj
 0003:00008834       $SG21061                   100a3834     cg_info.obj
 0003:0000883c       $SG21064                   100a383c     cg_info.obj
 0003:00008844       $SG21065                   100a3844     cg_info.obj
 0003:00008864       $SG21067                   100a3864     cg_info.obj
 0003:00008890       $SG21069                   100a3890     cg_info.obj
 0003:00008898       $SG21070                   100a3898     cg_info.obj
 0003:000088a0       $SG21071                   100a38a0     cg_info.obj
 0003:000088c0       $SG21073                   100a38c0     cg_info.obj
 0003:000088c4       $SG21085                   100a38c4     cg_info.obj
 0003:000088cc       $SG21088                   100a38cc     cg_info.obj
 0003:000088e0       $SG21090                   100a38e0     cg_info.obj
 0003:000088f4       $SG21092                   100a38f4     cg_info.obj
 0003:0000890c       $SG21097                   100a390c     cg_info.obj
 0003:00008918       $SG21098                   100a3918     cg_info.obj
 0003:0000892c       $SG20986                   100a392c     cg_localents.obj
 0003:0000894c       $SG21322                   100a394c     cg_localents.obj
 0003:000089d8       $SG21204                   100a39d8     cg_main.obj
 0003:000089e8       $SG21205                   100a39e8     cg_main.obj
 0003:000089ec       $SG21206                   100a39ec     cg_main.obj
 0003:000089f8       $SG21207                   100a39f8     cg_main.obj
 0003:000089fc       $SG21208                   100a39fc     cg_main.obj
 0003:00008a0c       $SG21209                   100a3a0c     cg_main.obj
 0003:00008a10       $SG21210                   100a3a10     cg_main.obj
 0003:00008a1c       $SG21211                   100a3a1c     cg_main.obj
 0003:00008a20       $SG21212                   100a3a20     cg_main.obj
 0003:00008a30       $SG21213                   100a3a30     cg_main.obj
 0003:00008a34       $SG21214                   100a3a34     cg_main.obj
 0003:00008a44       $SG21215                   100a3a44     cg_main.obj
 0003:00008a48       $SG21216                   100a3a48     cg_main.obj
 0003:00008a60       $SG21217                   100a3a60     cg_main.obj
 0003:00008a64       $SG21218                   100a3a64     cg_main.obj
 0003:00008a74       $SG21219                   100a3a74     cg_main.obj
 0003:00008a78       $SG21220                   100a3a78     cg_main.obj
 0003:00008a84       $SG21221                   100a3a84     cg_main.obj
 0003:00008a88       $SG21222                   100a3a88     cg_main.obj
 0003:00008a98       $SG21223                   100a3a98     cg_main.obj
 0003:00008a9c       $SG21224                   100a3a9c     cg_main.obj
 0003:00008ab4       $SG21225                   100a3ab4     cg_main.obj
 0003:00008ab8       $SG21226                   100a3ab8     cg_main.obj
 0003:00008ac4       $SG21227                   100a3ac4     cg_main.obj
 0003:00008ac8       $SG21228                   100a3ac8     cg_main.obj
 0003:00008ad4       $SG21229                   100a3ad4     cg_main.obj
 0003:00008ad8       $SG21230                   100a3ad8     cg_main.obj
 0003:00008ae4       $SG21231                   100a3ae4     cg_main.obj
 0003:00008aec       $SG21232                   100a3aec     cg_main.obj
 0003:00008af4       $SG21233                   100a3af4     cg_main.obj
 0003:00008af8       $SG21234                   100a3af8     cg_main.obj
 0003:00008b04       $SG21235                   100a3b04     cg_main.obj
 0003:00008b0c       $SG21236                   100a3b0c     cg_main.obj
 0003:00008b18       $SG21237                   100a3b18     cg_main.obj
 0003:00008b20       $SG21238                   100a3b20     cg_main.obj
 0003:00008b2c       $SG21239                   100a3b2c     cg_main.obj
 0003:00008b34       $SG21240                   100a3b34     cg_main.obj
 0003:00008b40       $SG21241                   100a3b40     cg_main.obj
 0003:00008b48       $SG21242                   100a3b48     cg_main.obj
 0003:00008b54       $SG21243                   100a3b54     cg_main.obj
 0003:00008b5c       $SG21244                   100a3b5c     cg_main.obj
 0003:00008b6c       $SG21245                   100a3b6c     cg_main.obj
 0003:00008b74       $SG21246                   100a3b74     cg_main.obj
 0003:00008b84       $SG21247                   100a3b84     cg_main.obj
 0003:00008b88       $SG21248                   100a3b88     cg_main.obj
 0003:00008b98       $SG21249                   100a3b98     cg_main.obj
 0003:00008b9c       $SG21250                   100a3b9c     cg_main.obj
 0003:00008bac       $SG21251                   100a3bac     cg_main.obj
 0003:00008bb0       $SG21252                   100a3bb0     cg_main.obj
 0003:00008bc4       $SG21253                   100a3bc4     cg_main.obj
 0003:00008bc8       $SG21254                   100a3bc8     cg_main.obj
 0003:00008bdc       $SG21255                   100a3bdc     cg_main.obj
 0003:00008be0       $SG21256                   100a3be0     cg_main.obj
 0003:00008c00       $SG21257                   100a3c00     cg_main.obj
 0003:00008c04       $SG21258                   100a3c04     cg_main.obj
 0003:00008c14       $SG21259                   100a3c14     cg_main.obj
 0003:00008c18       $SG21260                   100a3c18     cg_main.obj
 0003:00008c24       $SG21261                   100a3c24     cg_main.obj
 0003:00008c28       $SG21262                   100a3c28     cg_main.obj
 0003:00008c40       $SG21263                   100a3c40     cg_main.obj
 0003:00008c44       $SG21264                   100a3c44     cg_main.obj
 0003:00008c58       $SG21265                   100a3c58     cg_main.obj
 0003:00008c5c       $SG21266                   100a3c5c     cg_main.obj
 0003:00008c70       $SG21267                   100a3c70     cg_main.obj
 0003:00008c74       $SG21268                   100a3c74     cg_main.obj
 0003:00008c8c       $SG21269                   100a3c8c     cg_main.obj
 0003:00008c90       $SG21270                   100a3c90     cg_main.obj
 0003:00008ca4       $SG21271                   100a3ca4     cg_main.obj
 0003:00008ca8       $SG21272                   100a3ca8     cg_main.obj
 0003:00008cbc       $SG21273                   100a3cbc     cg_main.obj
 0003:00008cc0       $SG21274                   100a3cc0     cg_main.obj
 0003:00008cd8       $SG21275                   100a3cd8     cg_main.obj
 0003:00008cdc       $SG21276                   100a3cdc     cg_main.obj
 0003:00008cf4       $SG21277                   100a3cf4     cg_main.obj
 0003:00008cf8       $SG21278                   100a3cf8     cg_main.obj
 0003:00008d0c       $SG21279                   100a3d0c     cg_main.obj
 0003:00008d10       $SG21280                   100a3d10     cg_main.obj
 0003:00008d24       $SG21281                   100a3d24     cg_main.obj
 0003:00008d28       $SG21282                   100a3d28     cg_main.obj
 0003:00008d3c       $SG21283                   100a3d3c     cg_main.obj
 0003:00008d40       $SG21284                   100a3d40     cg_main.obj
 0003:00008d50       $SG21285                   100a3d50     cg_main.obj
 0003:00008d54       $SG21286                   100a3d54     cg_main.obj
 0003:00008d64       $SG21287                   100a3d64     cg_main.obj
 0003:00008d68       $SG21288                   100a3d68     cg_main.obj
 0003:00008d84       $SG21289                   100a3d84     cg_main.obj
 0003:00008d88       $SG21290                   100a3d88     cg_main.obj
 0003:00008da8       $SG21292                   100a3da8     cg_main.obj
 0003:00008db8       $SG21293                   100a3db8     cg_main.obj
 0003:00008de4       $SG21294                   100a3de4     cg_main.obj
 0003:00008dfc       $SG21295                   100a3dfc     cg_main.obj
 0003:00008e00       $SG21296                   100a3e00     cg_main.obj
 0003:00008e14       $SG21297                   100a3e14     cg_main.obj
 0003:00008e20       $SG21298                   100a3e20     cg_main.obj
 0003:00008e34       $SG21299                   100a3e34     cg_main.obj
 0003:00008e38       $SG21300                   100a3e38     cg_main.obj
 0003:00008e48       $SG21301                   100a3e48     cg_main.obj
 0003:00008e4c       $SG21302                   100a3e4c     cg_main.obj
 0003:00008e5c       $SG21303                   100a3e5c     cg_main.obj
 0003:00008e60       $SG21304                   100a3e60     cg_main.obj
 0003:00008e74       $SG21305                   100a3e74     cg_main.obj
 0003:00008e78       $SG21306                   100a3e78     cg_main.obj
 0003:00008e90       $SG21307                   100a3e90     cg_main.obj
 0003:00008e94       $SG21308                   100a3e94     cg_main.obj
 0003:00008ea4       $SG21309                   100a3ea4     cg_main.obj
 0003:00008ea8       $SG21310                   100a3ea8     cg_main.obj
 0003:00008ebc       $SG21311                   100a3ebc     cg_main.obj
 0003:00008ec0       $SG21312                   100a3ec0     cg_main.obj
 0003:00008ed8       $SG21313                   100a3ed8     cg_main.obj
 0003:00008edc       $SG21314                   100a3edc     cg_main.obj
 0003:00008ef4       $SG21315                   100a3ef4     cg_main.obj
 0003:00008ef8       $SG21316                   100a3ef8     cg_main.obj
 0003:00008f10       $SG21317                   100a3f10     cg_main.obj
 0003:00008f14       $SG21318                   100a3f14     cg_main.obj
 0003:00008f2c       $SG21319                   100a3f2c     cg_main.obj
 0003:00008f30       $SG21320                   100a3f30     cg_main.obj
 0003:00008f48       $SG21321                   100a3f48     cg_main.obj
 0003:00008f4c       $SG21322                   100a3f4c     cg_main.obj
 0003:00008f64       $SG21323                   100a3f64     cg_main.obj
 0003:00008f68       $SG21324                   100a3f68     cg_main.obj
 0003:00008f80       $SG21325                   100a3f80     cg_main.obj
 0003:00008f84       $SG21326                   100a3f84     cg_main.obj
 0003:00008f9c       $SG21327                   100a3f9c     cg_main.obj
 0003:00008fa0       $SG21328                   100a3fa0     cg_main.obj
 0003:00008fb8       $SG21329                   100a3fb8     cg_main.obj
 0003:00008fbc       $SG21330                   100a3fbc     cg_main.obj
 0003:00008fd4       $SG21331                   100a3fd4     cg_main.obj
 0003:00008fd8       $SG21332                   100a3fd8     cg_main.obj
 0003:00008ff0       $SG21333                   100a3ff0     cg_main.obj
 0003:00008ff4       $SG21334                   100a3ff4     cg_main.obj
 0003:0000900c       $SG21335                   100a400c     cg_main.obj
 0003:00009010       $SG21336                   100a4010     cg_main.obj
 0003:00009028       $SG21337                   100a4028     cg_main.obj
 0003:0000902c       $SG21338                   100a402c     cg_main.obj
 0003:00009038       $SG21339                   100a4038     cg_main.obj
 0003:0000903c       $SG21340                   100a403c     cg_main.obj
 0003:0000904c       $SG21341                   100a404c     cg_main.obj
 0003:00009050       $SG21342                   100a4050     cg_main.obj
 0003:00009064       $SG21343                   100a4064     cg_main.obj
 0003:00009068       $SG21344                   100a4068     cg_main.obj
 0003:00009078       $SG21345                   100a4078     cg_main.obj
 0003:0000907c       $SG21346                   100a407c     cg_main.obj
 0003:00009090       $SG21347                   100a4090     cg_main.obj
 0003:00009094       $SG21348                   100a4094     cg_main.obj
 0003:000090b0       $SG21349                   100a40b0     cg_main.obj
 0003:000090b4       $SG21350                   100a40b4     cg_main.obj
 0003:000090d4       $SG21351                   100a40d4     cg_main.obj
 0003:000090dc       $SG21352                   100a40dc     cg_main.obj
 0003:000090f4       $SG21353                   100a40f4     cg_main.obj
 0003:000090fc       $SG21354                   100a40fc     cg_main.obj
 0003:0000910c       $SG21355                   100a410c     cg_main.obj
 0003:00009110       $SG21356                   100a4110     cg_main.obj
 0003:0000911c       $SG21357                   100a411c     cg_main.obj
 0003:00009120       $SG21358                   100a4120     cg_main.obj
 0003:00009134       $SG21359                   100a4134     cg_main.obj
 0003:00009138       $SG21360                   100a4138     cg_main.obj
 0003:00009150       $SG21361                   100a4150     cg_main.obj
 0003:00009154       $SG21362                   100a4154     cg_main.obj
 0003:00009160       $SG21363                   100a4160     cg_main.obj
 0003:00009164       $SG21364                   100a4164     cg_main.obj
 0003:0000917c       $SG21365                   100a417c     cg_main.obj
 0003:00009184       $SG21366                   100a4184     cg_main.obj
 0003:00009194       $SG21367                   100a4194     cg_main.obj
 0003:00009198       $SG21368                   100a4198     cg_main.obj
 0003:000091ac       $SG21369                   100a41ac     cg_main.obj
 0003:000091b0       $SG21370                   100a41b0     cg_main.obj
 0003:000091c8       $SG21371                   100a41c8     cg_main.obj
 0003:000091cc       $SG21372                   100a41cc     cg_main.obj
 0003:000091e0       $SG21373                   100a41e0     cg_main.obj
 0003:000091e4       $SG21374                   100a41e4     cg_main.obj
 0003:000091f8       $SG21375                   100a41f8     cg_main.obj
 0003:000091fc       $SG21376                   100a41fc     cg_main.obj
 0003:00009210       $SG21377                   100a4210     cg_main.obj
 0003:00009214       $SG21378                   100a4214     cg_main.obj
 0003:0000922c       $SG21379                   100a422c     cg_main.obj
 0003:00009230       $SG21380                   100a4230     cg_main.obj
 0003:00009248       $SG21381                   100a4248     cg_main.obj
 0003:0000924c       $SG21382                   100a424c     cg_main.obj
 0003:00009268       $SG21383                   100a4268     cg_main.obj
 0003:0000926c       $SG21384                   100a426c     cg_main.obj
 0003:0000927c       $SG21385                   100a427c     cg_main.obj
 0003:00009280       $SG21386                   100a4280     cg_main.obj
 0003:00009298       $SG21387                   100a4298     cg_main.obj
 0003:0000929c       $SG21388                   100a429c     cg_main.obj
 0003:000092ac       $SG21389                   100a42ac     cg_main.obj
 0003:000092b0       $SG21390                   100a42b0     cg_main.obj
 0003:000092c0       $SG21391                   100a42c0     cg_main.obj
 0003:000092c4       $SG21392                   100a42c4     cg_main.obj
 0003:000092d8       $SG21393                   100a42d8     cg_main.obj
 0003:000092dc       $SG21394                   100a42dc     cg_main.obj
 0003:000092ec       $SG21395                   100a42ec     cg_main.obj
 0003:000092f0       $SG21396                   100a42f0     cg_main.obj
 0003:00009304       $SG21397                   100a4304     cg_main.obj
 0003:00009308       $SG21398                   100a4308     cg_main.obj
 0003:00009318       $SG21399                   100a4318     cg_main.obj
 0003:0000931c       $SG21400                   100a431c     cg_main.obj
 0003:00009330       $SG21401                   100a4330     cg_main.obj
 0003:00009334       $SG21402                   100a4334     cg_main.obj
 0003:00009350       $SG21403                   100a4350     cg_main.obj
 0003:00009358       $SG21404                   100a4358     cg_main.obj
 0003:00009370       $SG21405                   100a4370     cg_main.obj
 0003:00009378       $SG21406                   100a4378     cg_main.obj
 0003:0000938c       $SG21407                   100a438c     cg_main.obj
 0003:00009394       $SG21408                   100a4394     cg_main.obj
 0003:000093a8       $SG21409                   100a43a8     cg_main.obj
 0003:000093b0       $SG21410                   100a43b0     cg_main.obj
 0003:000093bc       $SG21411                   100a43bc     cg_main.obj
 0003:000093c0       $SG21412                   100a43c0     cg_main.obj
 0003:000093e0       $SG21413                   100a43e0     cg_main.obj
 0003:000093e4       $SG21414                   100a43e4     cg_main.obj
 0003:000093f4       $SG21415                   100a43f4     cg_main.obj
 0003:000093f8       $SG21416                   100a43f8     cg_main.obj
 0003:00009408       $SG21417                   100a4408     cg_main.obj
 0003:0000940c       $SG21418                   100a440c     cg_main.obj
 0003:00009424       $SG21419                   100a4424     cg_main.obj
 0003:00009428       $SG21420                   100a4428     cg_main.obj
 0003:00009440       $SG21421                   100a4440     cg_main.obj
 0003:00009444       $SG21422                   100a4444     cg_main.obj
 0003:00009464       $SG21423                   100a4464     cg_main.obj
 0003:0000946c       $SG21424                   100a446c     cg_main.obj
 0003:0000947c       $SG21426                   100a447c     cg_main.obj
 0003:00009490       $SG21428                   100a4490     cg_main.obj
 0003:000094a4       $SG21430                   100a44a4     cg_main.obj
 0003:000094b8       $SG21432                   100a44b8     cg_main.obj
 0003:000094c8       $SG21433                   100a44c8     cg_main.obj
 0003:000094cc       $SG21434                   100a44cc     cg_main.obj
 0003:000094e0       $SG21435                   100a44e0     cg_main.obj
 0003:000094e4       $SG21436                   100a44e4     cg_main.obj
 0003:000094f4       $SG21437                   100a44f4     cg_main.obj
 0003:000094f8       $SG21438                   100a44f8     cg_main.obj
 0003:0000950c       $SG21439                   100a450c     cg_main.obj
 0003:00009510       $SG21440                   100a4510     cg_main.obj
 0003:00009520       $SG21441                   100a4520     cg_main.obj
 0003:00009524       $SG21442                   100a4524     cg_main.obj
 0003:00009534       $SG21443                   100a4534     cg_main.obj
 0003:00009538       $SG21444                   100a4538     cg_main.obj
 0003:0000954c       $SG21446                   100a454c     cg_main.obj
 0003:0000955c       $SG21448                   100a455c     cg_main.obj
 0003:00009570       $SG21450                   100a4570     cg_main.obj
 0003:0000958c       $SG21451                   100a458c     cg_main.obj
 0003:00009590       $SG21452                   100a4590     cg_main.obj
 0003:000095a4       $SG21454                   100a45a4     cg_main.obj
 0003:000095b4       $SG21456                   100a45b4     cg_main.obj
 0003:000095c8       $SG21458                   100a45c8     cg_main.obj
 0003:000095e0       $SG21459                   100a45e0     cg_main.obj
 0003:000095e4       $SG21460                   100a45e4     cg_main.obj
 0003:000095ec       $SG21461                   100a45ec     cg_main.obj
 0003:000095f0       $SG21462                   100a45f0     cg_main.obj
 0003:00009600       $SG21464                   100a4600     cg_main.obj
 0003:00009610       $SG21466                   100a4610     cg_main.obj
 0003:00009620       $SG21468                   100a4620     cg_main.obj
 0003:00009630       $SG21470                   100a4630     cg_main.obj
 0003:00009640       $SG21472                   100a4640     cg_main.obj
 0003:00009650       $SG21474                   100a4650     cg_main.obj
 0003:0000965c       $SG21475                   100a465c     cg_main.obj
 0003:00009660       $SG21476                   100a4660     cg_main.obj
 0003:00009668       $SG21477                   100a4668     cg_main.obj
 0003:0000966c       $SG21478                   100a466c     cg_main.obj
 0003:00009674       $SG21479                   100a4674     cg_main.obj
 0003:00009678       $SG21480                   100a4678     cg_main.obj
 0003:00009680       $SG21481                   100a4680     cg_main.obj
 0003:00009684       $SG21482                   100a4684     cg_main.obj
 0003:00009694       $SG21483                   100a4694     cg_main.obj
 0003:00009698       $SG21484                   100a4698     cg_main.obj
 0003:000096a4       $SG21485                   100a46a4     cg_main.obj
 0003:000096b0       $SG21486                   100a46b0     cg_main.obj
 0003:000096c4       $SG21487                   100a46c4     cg_main.obj
 0003:000096c8       $SG21488                   100a46c8     cg_main.obj
 0003:000096d8       $SG21489                   100a46d8     cg_main.obj
 0003:000096dc       $SG21490                   100a46dc     cg_main.obj
 0003:000096ec       $SG21491                   100a46ec     cg_main.obj
 0003:000096f0       $SG21492                   100a46f0     cg_main.obj
 0003:00009700       $SG21493                   100a4700     cg_main.obj
 0003:00009704       $SG21494                   100a4704     cg_main.obj
 0003:00009710       $SG21495                   100a4710     cg_main.obj
 0003:00009714       $SG21496                   100a4714     cg_main.obj
 0003:0000972c       $SG21497                   100a472c     cg_main.obj
 0003:00009730       $SG21498                   100a4730     cg_main.obj
 0003:00009744       $SG21499                   100a4744     cg_main.obj
 0003:00009748       $SG21500                   100a4748     cg_main.obj
 0003:00009760       $SG21501                   100a4760     cg_main.obj
 0003:00009764       $SG21502                   100a4764     cg_main.obj
 0003:00009778       $SG21503                   100a4778     cg_main.obj
 0003:0000977c       $SG21504                   100a477c     cg_main.obj
 0003:00009788       $SG21505                   100a4788     cg_main.obj
 0003:0000978c       $SG21506                   100a478c     cg_main.obj
 0003:000097a8       $SG21507                   100a47a8     cg_main.obj
 0003:000097b0       $SG21508                   100a47b0     cg_main.obj
 0003:000097c8       $SG21509                   100a47c8     cg_main.obj
 0003:000097cc       $SG21510                   100a47cc     cg_main.obj
 0003:000097e8       $SG21511                   100a47e8     cg_main.obj
 0003:000097ec       $SG21512                   100a47ec     cg_main.obj
 0003:000097fc       $SG21513                   100a47fc     cg_main.obj
 0003:00009800       $SG21514                   100a4800     cg_main.obj
 0003:00009814       $SG21515                   100a4814     cg_main.obj
 0003:00009818       $SG21516                   100a4818     cg_main.obj
 0003:00009828       $SG21517                   100a4828     cg_main.obj
 0003:0000982c       $SG21518                   100a482c     cg_main.obj
 0003:00009844       $SG21519                   100a4844     cg_main.obj
 0003:00009848       $SG21520                   100a4848     cg_main.obj
 0003:00009860       $SG21521                   100a4860     cg_main.obj
 0003:00009864       $SG21522                   100a4864     cg_main.obj
 0003:00009878       $SG21523                   100a4878     cg_main.obj
 0003:0000987c       $SG21524                   100a487c     cg_main.obj
 0003:00009894       $SG21525                   100a4894     cg_main.obj
 0003:00009898       $SG21526                   100a4898     cg_main.obj
 0003:000098a4       $SG21527                   100a48a4     cg_main.obj
 0003:000098a8       $SG21528                   100a48a8     cg_main.obj
 0003:000098c4       $SG21530                   100a48c4     cg_main.obj
 0003:000098d4       $SG21531                   100a48d4     cg_main.obj
 0003:000098d8       $SG21532                   100a48d8     cg_main.obj
 0003:000098ec       $SG21533                   100a48ec     cg_main.obj
 0003:000098f0       $SG21534                   100a48f0     cg_main.obj
 0003:00009904       $SG21535                   100a4904     cg_main.obj
 0003:00009908       $SG21536                   100a4908     cg_main.obj
 0003:00009914       $SG21537                   100a4914     cg_main.obj
 0003:00009918       $SG21538                   100a4918     cg_main.obj
 0003:00009924       $SG21539                   100a4924     cg_main.obj
 0003:00009928       $SG21540                   100a4928     cg_main.obj
 0003:00009938       $SG21541                   100a4938     cg_main.obj
 0003:0000993c       $SG21542                   100a493c     cg_main.obj
 0003:00009958       $SG21543                   100a4958     cg_main.obj
 0003:0000995c       $SG21544                   100a495c     cg_main.obj
 0003:00009970       $SG21545                   100a4970     cg_main.obj
 0003:00009974       $SG21546                   100a4974     cg_main.obj
 0003:0000998c       $SG21547                   100a498c     cg_main.obj
 0003:00009990       $SG21548                   100a4990     cg_main.obj
 0003:0000999c       $SG21549                   100a499c     cg_main.obj
 0003:000099a0       $SG21550                   100a49a0     cg_main.obj
 0003:000099b0       $SG21551                   100a49b0     cg_main.obj
 0003:000099b4       $SG21552                   100a49b4     cg_main.obj
 0003:000099c8       $SG21553                   100a49c8     cg_main.obj
 0003:000099d0       $SG21554                   100a49d0     cg_main.obj
 0003:000099e0       $SG21555                   100a49e0     cg_main.obj
 0003:000099e4       $SG21556                   100a49e4     cg_main.obj
 0003:000099f8       $SG21558                   100a49f8     cg_main.obj
 0003:00009a04       $SG21559                   100a4a04     cg_main.obj
 0003:00009a0c       $SG21560                   100a4a0c     cg_main.obj
 0003:00009a1c       $SG21561                   100a4a1c     cg_main.obj
 0003:00009a20       $SG21562                   100a4a20     cg_main.obj
 0003:00009a30       $SG21563                   100a4a30     cg_main.obj
 0003:00009a34       $SG21564                   100a4a34     cg_main.obj
 0003:00009a44       $SG21565                   100a4a44     cg_main.obj
 0003:00009a50       $SG21566                   100a4a50     cg_main.obj
 0003:00009a68       $SG21567                   100a4a68     cg_main.obj
 0003:00009a74       $SG21568                   100a4a74     cg_main.obj
 0003:00009a8c       $SG21569                   100a4a8c     cg_main.obj
 0003:00009a98       $SG21570                   100a4a98     cg_main.obj
 0003:00009ab0       $SG21571                   100a4ab0     cg_main.obj
 0003:00009ab4       $SG21572                   100a4ab4     cg_main.obj
 0003:00009ad0       $SG21573                   100a4ad0     cg_main.obj
 0003:00009ad4       $SG21574                   100a4ad4     cg_main.obj
 0003:00009aec       $SG21575                   100a4aec     cg_main.obj
 0003:00009af0       $SG21576                   100a4af0     cg_main.obj
 0003:00009afc       $SG21577                   100a4afc     cg_main.obj
 0003:00009b00       $SG21578                   100a4b00     cg_main.obj
 0003:00009b0c       $SG21579                   100a4b0c     cg_main.obj
 0003:00009b10       $SG21580                   100a4b10     cg_main.obj
 0003:00009b20       $SG21581                   100a4b20     cg_main.obj
 0003:00009b24       $SG21582                   100a4b24     cg_main.obj
 0003:00009b38       $SG21583                   100a4b38     cg_main.obj
 0003:00009b3c       $SG21584                   100a4b3c     cg_main.obj
 0003:00009b58       $SG21585                   100a4b58     cg_main.obj
 0003:00009b5c       $SG21586                   100a4b5c     cg_main.obj
 0003:00009b74       $SG21587                   100a4b74     cg_main.obj
 0003:00009b78       $SG21588                   100a4b78     cg_main.obj
 0003:00009b90       $SG21589                   100a4b90     cg_main.obj
 0003:00009b94       $SG21590                   100a4b94     cg_main.obj
 0003:00009bac       $SG21591                   100a4bac     cg_main.obj
 0003:00009bb0       $SG21592                   100a4bb0     cg_main.obj
 0003:00009bc0       $SG21593                   100a4bc0     cg_main.obj
 0003:00009bc8       $SG21594                   100a4bc8     cg_main.obj
 0003:00009bd8       $SG21595                   100a4bd8     cg_main.obj
 0003:00009bdc       $SG21596                   100a4bdc     cg_main.obj
 0003:00009bf0       $SG21597                   100a4bf0     cg_main.obj
 0003:00009bf4       $SG21598                   100a4bf4     cg_main.obj
 0003:00009c0c       $SG21599                   100a4c0c     cg_main.obj
 0003:00009c14       $SG21600                   100a4c14     cg_main.obj
 0003:00009c28       $SG21601                   100a4c28     cg_main.obj
 0003:00009c2c       $SG21602                   100a4c2c     cg_main.obj
 0003:00009c40       $SG21603                   100a4c40     cg_main.obj
 0003:00009c44       $SG21604                   100a4c44     cg_main.obj
 0003:00009c54       $SG21605                   100a4c54     cg_main.obj
 0003:00009c58       $SG21606                   100a4c58     cg_main.obj
 0003:00009c6c       $SG21607                   100a4c6c     cg_main.obj
 0003:00009c70       $SG21608                   100a4c70     cg_main.obj
 0003:00009c90       $SG21609                   100a4c90     cg_main.obj
 0003:00009c94       $SG21610                   100a4c94     cg_main.obj
 0003:00009ca4       $SG21611                   100a4ca4     cg_main.obj
 0003:00009ca8       $SG21612                   100a4ca8     cg_main.obj
 0003:00009cb4       $SG21613                   100a4cb4     cg_main.obj
 0003:00009cb8       $SG21614                   100a4cb8     cg_main.obj
 0003:00009ccc       $SG21615                   100a4ccc     cg_main.obj
 0003:00009cd0       $SG21616                   100a4cd0     cg_main.obj
 0003:00009ce0       $SG21617                   100a4ce0     cg_main.obj
 0003:00009ce4       $SG21618                   100a4ce4     cg_main.obj
 0003:00009cf8       $SG21619                   100a4cf8     cg_main.obj
 0003:00009cfc       $SG21620                   100a4cfc     cg_main.obj
 0003:00009d10       $SG21621                   100a4d10     cg_main.obj
 0003:00009d14       $SG21622                   100a4d14     cg_main.obj
 0003:00009d24       $SG21623                   100a4d24     cg_main.obj
 0003:00009d28       $SG21624                   100a4d28     cg_main.obj
 0003:00009d3c       $SG21625                   100a4d3c     cg_main.obj
 0003:00009d40       $SG21626                   100a4d40     cg_main.obj
 0003:00009d54       $SG21627                   100a4d54     cg_main.obj
 0003:00009d58       $SG21628                   100a4d58     cg_main.obj
 0003:00009d68       $SG21629                   100a4d68     cg_main.obj
 0003:00009d70       $SG21630                   100a4d70     cg_main.obj
 0003:00009d80       $SG21632                   100a4d80     cg_main.obj
 0003:00009d94       $SG21634                   100a4d94     cg_main.obj
 0003:00009da8       $SG21636                   100a4da8     cg_main.obj
 0003:00009dbc       $SG21638                   100a4dbc     cg_main.obj
 0003:00009dd8       $SG21639                   100a4dd8     cg_main.obj
 0003:00009ddc       $SG21640                   100a4ddc     cg_main.obj
 0003:00009e00       $SG21641                   100a4e00     cg_main.obj
 0003:00009e08       $SG21642                   100a4e08     cg_main.obj
 0003:00009e18       $SG21643                   100a4e18     cg_main.obj
 0003:00009e1c       $SG21644                   100a4e1c     cg_main.obj
 0003:00009e30       $SG21645                   100a4e30     cg_main.obj
 0003:00009e34       $SG21646                   100a4e34     cg_main.obj
 0003:00009e44       $SG21647                   100a4e44     cg_main.obj
 0003:00009e48       $SG21648                   100a4e48     cg_main.obj
 0003:00009e60       $SG21649                   100a4e60     cg_main.obj
 0003:00009e68       $SG21650                   100a4e68     cg_main.obj
 0003:00009e80       $SG21651                   100a4e80     cg_main.obj
 0003:00009e84       $SG21652                   100a4e84     cg_main.obj
 0003:00009e90       $SG21653                   100a4e90     cg_main.obj
 0003:00009e94       $SG21654                   100a4e94     cg_main.obj
 0003:00009ea4       $SG21655                   100a4ea4     cg_main.obj
 0003:00009ea8       $SG21656                   100a4ea8     cg_main.obj
 0003:00009eb8       $SG21657                   100a4eb8     cg_main.obj
 0003:00009ec0       $SG21658                   100a4ec0     cg_main.obj
 0003:00009ed0       $SG21659                   100a4ed0     cg_main.obj
 0003:00009ed8       $SG21660                   100a4ed8     cg_main.obj
 0003:00009ee8       $SG21661                   100a4ee8     cg_main.obj
 0003:00009eec       $SG21662                   100a4eec     cg_main.obj
 0003:00009f00       $SG21663                   100a4f00     cg_main.obj
 0003:00009f04       $SG21664                   100a4f04     cg_main.obj
 0003:00009f18       $SG21665                   100a4f18     cg_main.obj
 0003:00009f1c       $SG21666                   100a4f1c     cg_main.obj
 0003:00009f30       $SG21667                   100a4f30     cg_main.obj
 0003:00009f34       $SG21668                   100a4f34     cg_main.obj
 0003:00009f40       $SG21669                   100a4f40     cg_main.obj
 0003:00009f44       $SG21670                   100a4f44     cg_main.obj
 0003:00009f58       $SG21671                   100a4f58     cg_main.obj
 0003:00009f5c       $SG21672                   100a4f5c     cg_main.obj
 0003:00009f74       $SG21673                   100a4f74     cg_main.obj
 0003:00009f78       $SG21674                   100a4f78     cg_main.obj
 0003:00009f88       $SG21675                   100a4f88     cg_main.obj
 0003:00009f8c       $SG21676                   100a4f8c     cg_main.obj
 0003:00009f9c       $SG21677                   100a4f9c     cg_main.obj
 0003:00009fa0       $SG21678                   100a4fa0     cg_main.obj
 0003:00009fb0       $SG21679                   100a4fb0     cg_main.obj
 0003:00009fb4       $SG21680                   100a4fb4     cg_main.obj
 0003:00009fc4       $SG21681                   100a4fc4     cg_main.obj
 0003:00009fc8       $SG21682                   100a4fc8     cg_main.obj
 0003:00009fdc       $SG21683                   100a4fdc     cg_main.obj
 0003:00009fe0       $SG21684                   100a4fe0     cg_main.obj
 0003:00009ff0       $SG21685                   100a4ff0     cg_main.obj
 0003:00009ff4       $SG21686                   100a4ff4     cg_main.obj
 0003:0000a008       $SG21687                   100a5008     cg_main.obj
 0003:0000a00c       $SG21688                   100a500c     cg_main.obj
 0003:0000a020       $SG21689                   100a5020     cg_main.obj
 0003:0000a024       $SG21690                   100a5024     cg_main.obj
 0003:0000a030       $SG21691                   100a5030     cg_main.obj
 0003:0000a034       $SG21692                   100a5034     cg_main.obj
 0003:0000a040       $SG21693                   100a5040     cg_main.obj
 0003:0000a044       $SG21694                   100a5044     cg_main.obj
 0003:0000a05c       $SG21695                   100a505c     cg_main.obj
 0003:0000a060       $SG21696                   100a5060     cg_main.obj
 0003:0000a070       $SG21697                   100a5070     cg_main.obj
 0003:0000a074       $SG21698                   100a5074     cg_main.obj
 0003:0000a084       $SG21699                   100a5084     cg_main.obj
 0003:0000a088       $SG21700                   100a5088     cg_main.obj
 0003:0000a0a0       $SG21701                   100a50a0     cg_main.obj
 0003:0000a0ac       $SG21702                   100a50ac     cg_main.obj
 0003:0000a0bc       $SG21704                   100a50bc     cg_main.obj
 0003:0000a0d0       $SG21706                   100a50d0     cg_main.obj
 0003:0000a0e4       $SG21708                   100a50e4     cg_main.obj
 0003:0000a0f8       $SG21710                   100a50f8     cg_main.obj
 0003:0000a10c       $SG21712                   100a510c     cg_main.obj
 0003:0000a120       $SG21714                   100a5120     cg_main.obj
 0003:0000a134       $SG21716                   100a5134     cg_main.obj
 0003:0000a148       $SG21718                   100a5148     cg_main.obj
 0003:0000a15c       $SG21720                   100a515c     cg_main.obj
 0003:0000a170       $SG21722                   100a5170     cg_main.obj
 0003:0000a184       $SG21724                   100a5184     cg_main.obj
 0003:0000a198       $SG21726                   100a5198     cg_main.obj
 0003:0000a1ac       $SG21728                   100a51ac     cg_main.obj
 0003:0000a1c0       $SG21730                   100a51c0     cg_main.obj
 0003:0000a1d4       $SG21732                   100a51d4     cg_main.obj
 0003:0000a1e8       $SG21734                   100a51e8     cg_main.obj
 0003:0000a200       $SG21736                   100a5200     cg_main.obj
 0003:0000a20c       $SG21737                   100a520c     cg_main.obj
 0003:0000a214       $SG21738                   100a5214     cg_main.obj
 0003:0000a228       $SG21739                   100a5228     cg_main.obj
 0003:0000a22c       $SG21740                   100a522c     cg_main.obj
 0003:0000a23c       $SG21741                   100a523c     cg_main.obj
 0003:0000a240       $SG21742                   100a5240     cg_main.obj
 0003:0000a254       $SG21743                   100a5254     cg_main.obj
 0003:0000a258       $SG21744                   100a5258     cg_main.obj
 0003:0000a268       $SG21745                   100a5268     cg_main.obj
 0003:0000a26c       $SG21754                   100a526c     cg_main.obj
 0003:0000a270       $SG21755                   100a5270     cg_main.obj
 0003:0000a27c       $SG21756                   100a527c     cg_main.obj
 0003:0000a280       $SG21757                   100a5280     cg_main.obj
 0003:0000a28c       $SG21758                   100a528c     cg_main.obj
 0003:0000a290       $SG21759                   100a5290     cg_main.obj
 0003:0000a298       $SG21760                   100a5298     cg_main.obj
 0003:0000a2ac       $SG21761                   100a52ac     cg_main.obj
 0003:0000a2b0       $SG21762                   100a52b0     cg_main.obj
 0003:0000a2b8       $SG21763                   100a52b8     cg_main.obj
 0003:0000a2bc       $SG21764                   100a52bc     cg_main.obj
 0003:0000a2c4       $SG21765                   100a52c4     cg_main.obj
 0003:0000a2d8       $SG21766                   100a52d8     cg_main.obj
 0003:0000a2e8       $SG21767                   100a52e8     cg_main.obj
 0003:0000a2ec       $SG21768                   100a52ec     cg_main.obj
 0003:0000a2f4       $SG21769                   100a52f4     cg_main.obj
 0003:0000a304       $SG21770                   100a5304     cg_main.obj
 0003:0000a314       $SG21771                   100a5314     cg_main.obj
 0003:0000a318       $SG21772                   100a5318     cg_main.obj
 0003:0000a324       $SG21773                   100a5324     cg_main.obj
 0003:0000a328       $SG21774                   100a5328     cg_main.obj
 0003:0000a330       $SG21775                   100a5330     cg_main.obj
 0003:0000a338       $SG21776                   100a5338     cg_main.obj
 0003:0000a33c       $SG21777                   100a533c     cg_main.obj
 0003:0000a344       $SG21778                   100a5344     cg_main.obj
 0003:0000a350       $SG21779                   100a5350     cg_main.obj
 0003:0000a354       $SG21780                   100a5354     cg_main.obj
 0003:0000a358       $SG21781                   100a5358     cg_main.obj
 0003:0000a360       $SG21782                   100a5360     cg_main.obj
 0003:0000a370       $SG21783                   100a5370     cg_main.obj
 0003:0000a378       $SG21784                   100a5378     cg_main.obj
 0003:0000a37c       $SG21785                   100a537c     cg_main.obj
 0003:0000a388       $SG21786                   100a5388     cg_main.obj
 0003:0000a38c       $SG21787                   100a538c     cg_main.obj
 0003:0000a394       $SG21788                   100a5394     cg_main.obj
 0003:0000a398       $SG21789                   100a5398     cg_main.obj
 0003:0000a3a0       $SG21790                   100a53a0     cg_main.obj
 0003:0000a3b0       $SG21791                   100a53b0     cg_main.obj
 0003:0000a3c0       $SG21792                   100a53c0     cg_main.obj
 0003:0000a3cc       $SG21793                   100a53cc     cg_main.obj
 0003:0000a3dc       $SG22439                   100a53dc     cg_main.obj
 0003:0000a3e4       $SG22440                   100a53e4     cg_main.obj
 0003:0000a3ec       $SG22461                   100a53ec     cg_main.obj
 0003:0000a3f4       $SG22462                   100a53f4     cg_main.obj
 0003:0000a3fc       $SG22521                   100a53fc     cg_main.obj
 0003:0000a408       $SG22522                   100a5408     cg_main.obj
 0003:0000a418       $SG22524                   100a5418     cg_main.obj
 0003:0000a420       $SG22525                   100a5420     cg_main.obj
 0003:0000a428       $SG22526                   100a5428     cg_main.obj
 0003:0000a430       $SG22702                   100a5430     cg_main.obj
 0003:0000a43c       $SG22703                   100a543c     cg_main.obj
 0003:0000a448       $SG22704                   100a5448     cg_main.obj
 0003:0000a454       $SG22705                   100a5454     cg_main.obj
 0003:0000a460       $SG22706                   100a5460     cg_main.obj
 0003:0000a46c       $SG22707                   100a546c     cg_main.obj
 0003:0000a474       $SG22708                   100a5474     cg_main.obj
 0003:0000a47c       $SG22709                   100a547c     cg_main.obj
 0003:0000a484       $SG22710                   100a5484     cg_main.obj
 0003:0000a48c       $SG22711                   100a548c     cg_main.obj
 0003:0000a494       $SG22950                   100a5494     cg_main.obj
 0003:0000a4ac       $SG22951                   100a54ac     cg_main.obj
 0003:0000a4c4       $SG22952                   100a54c4     cg_main.obj
 0003:0000a4dc       $SG22953                   100a54dc     cg_main.obj
 0003:0000a4f8       $SG22954                   100a54f8     cg_main.obj
 0003:0000a510       $SG22955                   100a5510     cg_main.obj
 0003:0000a528       $SG22956                   100a5528     cg_main.obj
 0003:0000a540       $SG22957                   100a5540     cg_main.obj
 0003:0000a55c       $SG22958                   100a555c     cg_main.obj
 0003:0000a578       $SG22959                   100a5578     cg_main.obj
 0003:0000a590       $SG22960                   100a5590     cg_main.obj
 0003:0000a5ac       $SG23082                   100a55ac     cg_main.obj
 0003:0000a5c8       $SG23083                   100a55c8     cg_main.obj
 0003:0000a5e4       $SG23084                   100a55e4     cg_main.obj
 0003:0000a600       $SG23085                   100a5600     cg_main.obj
 0003:0000a61c       $SG23086                   100a561c     cg_main.obj
 0003:0000a638       $SG23087                   100a5638     cg_main.obj
 0003:0000a658       $SG23088                   100a5658     cg_main.obj
 0003:0000a678       $SG23089                   100a5678     cg_main.obj
 0003:0000a698       $SG23090                   100a5698     cg_main.obj
 0003:0000a6b8       $SG23091                   100a56b8     cg_main.obj
 0003:0000a6d8       $SG23092                   100a56d8     cg_main.obj
 0003:0000a6f4       $SG23093                   100a56f4     cg_main.obj
 0003:0000a710       $SG23094                   100a5710     cg_main.obj
 0003:0000a72c       $SG23095                   100a572c     cg_main.obj
 0003:0000a748       $SG23096                   100a5748     cg_main.obj
 0003:0000a764       $SG23097                   100a5764     cg_main.obj
 0003:0000a784       $SG23098                   100a5784     cg_main.obj
 0003:0000a7a4       $SG23099                   100a57a4     cg_main.obj
 0003:0000a7c4       $SG23100                   100a57c4     cg_main.obj
 0003:0000a7e4       $SG23101                   100a57e4     cg_main.obj
 0003:0000a804       $SG23424                   100a5804     cg_main.obj
 0003:0000a814       $SG23425                   100a5814     cg_main.obj
 0003:0000a82c       $SG23426                   100a582c     cg_main.obj
 0003:0000a848       $SG23427                   100a5848     cg_main.obj
 0003:0000a860       $SG23428                   100a5860     cg_main.obj
 0003:0000a878       $SG23429                   100a5878     cg_main.obj
 0003:0000a88c       $SG23430                   100a588c     cg_main.obj
 0003:0000a8a8       $SG23431                   100a58a8     cg_main.obj
 0003:0000a8c0       $SG23432                   100a58c0     cg_main.obj
 0003:0000a8e0       $SG23433                   100a58e0     cg_main.obj
 0003:0000a8f4       $SG23434                   100a58f4     cg_main.obj
 0003:0000a914       $SG23435                   100a5914     cg_main.obj
 0003:0000a934       $SG23436                   100a5934     cg_main.obj
 0003:0000a954       $SG23437                   100a5954     cg_main.obj
 0003:0000a974       $SG23438                   100a5974     cg_main.obj
 0003:0000a994       $SG23439                   100a5994     cg_main.obj
 0003:0000a9b4       $SG23440                   100a59b4     cg_main.obj
 0003:0000a9d4       $SG23441                   100a59d4     cg_main.obj
 0003:0000a9f4       $SG23442                   100a59f4     cg_main.obj
 0003:0000aa14       $SG23443                   100a5a14     cg_main.obj
 0003:0000aa34       $SG23444                   100a5a34     cg_main.obj
 0003:0000aa54       $SG23445                   100a5a54     cg_main.obj
 0003:0000aa74       $SG23446                   100a5a74     cg_main.obj
 0003:0000aa90       $SG23447                   100a5a90     cg_main.obj
 0003:0000aaac       $SG23448                   100a5aac     cg_main.obj
 0003:0000aac8       $SG23449                   100a5ac8     cg_main.obj
 0003:0000aae4       $SG23450                   100a5ae4     cg_main.obj
 0003:0000ab00       $SG23451                   100a5b00     cg_main.obj
 0003:0000ab1c       $SG23452                   100a5b1c     cg_main.obj
 0003:0000ab3c       $SG23453                   100a5b3c     cg_main.obj
 0003:0000ab58       $SG23454                   100a5b58     cg_main.obj
 0003:0000ab74       $SG23455                   100a5b74     cg_main.obj
 0003:0000ab90       $SG23456                   100a5b90     cg_main.obj
 0003:0000abac       $SG23457                   100a5bac     cg_main.obj
 0003:0000abc8       $SG24453                   100a5bc8     cg_main.obj
 0003:0000abe4       $SG24454                   100a5be4     cg_main.obj
 0003:0000ac00       $SG24455                   100a5c00     cg_main.obj
 0003:0000ac1c       $SG24456                   100a5c1c     cg_main.obj
 0003:0000ac38       $SG24457                   100a5c38     cg_main.obj
 0003:0000ac54       $SG24458                   100a5c54     cg_main.obj
 0003:0000ac74       $SG24459                   100a5c74     cg_main.obj
 0003:0000ac94       $SG24460                   100a5c94     cg_main.obj
 0003:0000acb0       $SG24461                   100a5cb0     cg_main.obj
 0003:0000acd0       $SG24462                   100a5cd0     cg_main.obj
 0003:0000acf0       $SG24463                   100a5cf0     cg_main.obj
 0003:0000ad1c       $SG24464                   100a5d1c     cg_main.obj
 0003:0000ad34       $SG24465                   100a5d34     cg_main.obj
 0003:0000ad58       $SG24466                   100a5d58     cg_main.obj
 0003:0000ad7c       $SG24467                   100a5d7c     cg_main.obj
 0003:0000ada0       $SG24468                   100a5da0     cg_main.obj
 0003:0000adc4       $SG24469                   100a5dc4     cg_main.obj
 0003:0000ade0       $SG24470                   100a5de0     cg_main.obj
 0003:0000adfc       $SG24471                   100a5dfc     cg_main.obj
 0003:0000ae1c       $SG24472                   100a5e1c     cg_main.obj
 0003:0000ae40       $SG24473                   100a5e40     cg_main.obj
 0003:0000ae60       $SG24474                   100a5e60     cg_main.obj
 0003:0000ae80       $SG24475                   100a5e80     cg_main.obj
 0003:0000aea0       $SG24476                   100a5ea0     cg_main.obj
 0003:0000aec0       $SG24477                   100a5ec0     cg_main.obj
 0003:0000aedc       $SG24478                   100a5edc     cg_main.obj
 0003:0000aef8       $SG24479                   100a5ef8     cg_main.obj
 0003:0000af14       $SG24480                   100a5f14     cg_main.obj
 0003:0000af30       $SG24481                   100a5f30     cg_main.obj
 0003:0000af4c       $SG24482                   100a5f4c     cg_main.obj
 0003:0000af68       $SG24483                   100a5f68     cg_main.obj
 0003:0000af84       $SG24484                   100a5f84     cg_main.obj
 0003:0000afa0       $SG24485                   100a5fa0     cg_main.obj
 0003:0000afbc       $SG24486                   100a5fbc     cg_main.obj
 0003:0000afe0       $SG24487                   100a5fe0     cg_main.obj
 0003:0000affc       $SG24488                   100a5ffc     cg_main.obj
 0003:0000b020       $SG24489                   100a6020     cg_main.obj
 0003:0000b044       $SG24490                   100a6044     cg_main.obj
 0003:0000b068       $SG24491                   100a6068     cg_main.obj
 0003:0000b088       $SG24492                   100a6088     cg_main.obj
 0003:0000b0a4       $SG24493                   100a60a4     cg_main.obj
 0003:0000b0c0       $SG24494                   100a60c0     cg_main.obj
 0003:0000b0dc       $SG24495                   100a60dc     cg_main.obj
 0003:0000b0f8       $SG24496                   100a60f8     cg_main.obj
 0003:0000b114       $SG24497                   100a6114     cg_main.obj
 0003:0000b130       $SG24498                   100a6130     cg_main.obj
 0003:0000b14c       $SG24499                   100a614c     cg_main.obj
 0003:0000b164       $SG24500                   100a6164     cg_main.obj
 0003:0000b178       $SG24501                   100a6178     cg_main.obj
 0003:0000b194       $SG24502                   100a6194     cg_main.obj
 0003:0000b1b8       $SG24503                   100a61b8     cg_main.obj
 0003:0000b1e0       $SG24504                   100a61e0     cg_main.obj
 0003:0000b204       $SG24505                   100a6204     cg_main.obj
 0003:0000b220       $SG24506                   100a6220     cg_main.obj
 0003:0000b23c       $SG24507                   100a623c     cg_main.obj
 0003:0000b258       $SG24508                   100a6258     cg_main.obj
 0003:0000b278       $SG24509                   100a6278     cg_main.obj
 0003:0000b294       $SG24510                   100a6294     cg_main.obj
 0003:0000b2b4       $SG24511                   100a62b4     cg_main.obj
 0003:0000b2d4       $SG24512                   100a62d4     cg_main.obj
 0003:0000b2f0       $SG24513                   100a62f0     cg_main.obj
 0003:0000b318       $SG24514                   100a6318     cg_main.obj
 0003:0000b340       $SG24515                   100a6340     cg_main.obj
 0003:0000b368       $SG24516                   100a6368     cg_main.obj
 0003:0000b38c       $SG24517                   100a638c     cg_main.obj
 0003:0000b3b0       $SG24518                   100a63b0     cg_main.obj
 0003:0000b3d4       $SG24519                   100a63d4     cg_main.obj
 0003:0000b3f8       $SG24520                   100a63f8     cg_main.obj
 0003:0000b414       $SG24521                   100a6414     cg_main.obj
 0003:0000b430       $SG24522                   100a6430     cg_main.obj
 0003:0000b450       $SG24523                   100a6450     cg_main.obj
 0003:0000b474       $SG24524                   100a6474     cg_main.obj
 0003:0000b498       $SG24525                   100a6498     cg_main.obj
 0003:0000b4bc       $SG24526                   100a64bc     cg_main.obj
 0003:0000b4e0       $SG24527                   100a64e0     cg_main.obj
 0003:0000b4fc       $SG24528                   100a64fc     cg_main.obj
 0003:0000b518       $SG24529                   100a6518     cg_main.obj
 0003:0000b534       $SG24530                   100a6534     cg_main.obj
 0003:0000b550       $SG24531                   100a6550     cg_main.obj
 0003:0000b56c       $SG24532                   100a656c     cg_main.obj
 0003:0000b58c       $SG24533                   100a658c     cg_main.obj
 0003:0000b5b0       $SG24534                   100a65b0     cg_main.obj
 0003:0000b5d4       $SG24535                   100a65d4     cg_main.obj
 0003:0000b5f4       $SG24536                   100a65f4     cg_main.obj
 0003:0000b618       $SG24537                   100a6618     cg_main.obj
 0003:0000b638       $SG24538                   100a6638     cg_main.obj
 0003:0000b654       $SG24539                   100a6654     cg_main.obj
 0003:0000b674       $SG24540                   100a6674     cg_main.obj
 0003:0000b690       $SG24541                   100a6690     cg_main.obj
 0003:0000b6b0       $SG24542                   100a66b0     cg_main.obj
 0003:0000b6cc       $SG24543                   100a66cc     cg_main.obj
 0003:0000b6e8       $SG24544                   100a66e8     cg_main.obj
 0003:0000b704       $SG24545                   100a6704     cg_main.obj
 0003:0000b724       $SG24546                   100a6724     cg_main.obj
 0003:0000b744       $SG24547                   100a6744     cg_main.obj
 0003:0000b764       $SG24548                   100a6764     cg_main.obj
 0003:0000b780       $SG24549                   100a6780     cg_main.obj
 0003:0000b79c       $SG24550                   100a679c     cg_main.obj
 0003:0000b7b8       $SG24551                   100a67b8     cg_main.obj
 0003:0000b7e0       _damagePlumModificationCount 100a67e0     cg_main.obj
 0003:0000b7e4       _damagePlumColorStyleModificationCount 100a67e4     cg_main.obj
 0003:0000b7e8       _crosshairColorModificationCount 100a67e8     cg_main.obj
 0003:0000b7ec       _crosshairBrightnessModificationCount 100a67ec     cg_main.obj
 0003:0000b7f0       _crosshairPulseModificationCount 100a67f0     cg_main.obj
 0003:0000b7f4       _crosshairHitStyleModificationCount 100a67f4     cg_main.obj
 0003:0000b7f8       _crosshairHitTimeModificationCount 100a67f8     cg_main.obj
 0003:0000b7fc       _crosshairHitColorModificationCount 100a67fc     cg_main.obj
 0003:0000b800       $SG21113                   100a6800     cg_main.obj
 0003:0000b81c       _weaponColorGrenadeModCount 100a681c     cg_main.obj
 0003:0000b820       _cg_nativeExports          100a6820     cg_main.obj
 0003:0000b874       _lowAmmoWarningPercentileModCount 100a6874     cg_main.obj
 0003:0000b878       _announcerModificationCount 100a6878     cg_main.obj
 0003:0000b87c       $SG21851                   100a687c     cg_main.obj
 0003:0000b880       _cvarTable                 100a6880     cg_main.obj
 0003:0000c970       $SG21852                   100a7970     cg_main.obj
 0003:0000c974       $SG21853                   100a7974     cg_main.obj
 0003:0000c97c       $SG21856                   100a797c     cg_main.obj
 0003:0000c980       $SG21857                   100a7980     cg_main.obj
 0003:0000c984       $SG21858                   100a7984     cg_main.obj
 0003:0000c988       $SG21861                   100a7988     cg_main.obj
 0003:0000c98c       $SG21862                   100a798c     cg_main.obj
 0003:0000c990       $SG21865                   100a7990     cg_main.obj
 0003:0000c994       $SG21867                   100a7994     cg_main.obj
 0003:0000c998       $SG21878                   100a7998     cg_main.obj
 0003:0000c99c       $SG21879                   100a799c     cg_main.obj
 0003:0000c9a0       $SG21880                   100a79a0     cg_main.obj
 0003:0000c9a4       $SG21883                   100a79a4     cg_main.obj
 0003:0000c9a8       $SG21884                   100a79a8     cg_main.obj
 0003:0000c9ac       _cvarTableSize             100a79ac     cg_main.obj
 0003:0000c9b0       $SG21932                   100a79b0     cg_main.obj
 0003:0000c9b8       $SG21968                   100a79b8     cg_main.obj
 0003:0000c9bc       $SG21977                   100a79bc     cg_main.obj
 0003:0000c9c8       $SG22019                   100a79c8     cg_main.obj
 0003:0000c9d4       $SG22022                   100a79d4     cg_main.obj
 0003:0000c9e0       $SG22023                   100a79e0     cg_main.obj
 0003:0000c9ec       $SG22024                   100a79ec     cg_main.obj
 0003:0000c9f8       $SG22025                   100a79f8     cg_main.obj
 0003:0000ca00       $SG22026                   100a7a00     cg_main.obj
 0003:0000ca08       $SG22027                   100a7a08     cg_main.obj
 0003:0000ca10       $SG22028                   100a7a10     cg_main.obj
 0003:0000ca1c       $SG22029                   100a7a1c     cg_main.obj
 0003:0000ca24       $SG22030                   100a7a24     cg_main.obj
 0003:0000ca30       $SG22031                   100a7a30     cg_main.obj
 0003:0000ca38       $SG22032                   100a7a38     cg_main.obj
 0003:0000ca48       $SG22033                   100a7a48     cg_main.obj
 0003:0000ca54       $SG22034                   100a7a54     cg_main.obj
 0003:0000ca60       $SG22035                   100a7a60     cg_main.obj
 0003:0000ca64       $SG22036                   100a7a64     cg_main.obj
 0003:0000ca74       $SG22038                   100a7a74     cg_main.obj
 0003:0000ca84       $SG22076                   100a7a84     cg_main.obj
 0003:0000ca98       $SG22077                   100a7a98     cg_main.obj
 0003:0000caa4       $SG22078                   100a7aa4     cg_main.obj
 0003:0000cab4       $SG22085                   100a7ab4     cg_main.obj
 0003:0000cad0       $SG22087                   100a7ad0     cg_main.obj
 0003:0000cad8       $SG22118                   100a7ad8     cg_main.obj
 0003:0000cae0       $SG22184                   100a7ae0     cg_main.obj
 0003:0000cae4       $SG22185                   100a7ae4     cg_main.obj
 0003:0000caf0       $SG22186                   100a7af0     cg_main.obj
 0003:0000caf4       $SG22187                   100a7af4     cg_main.obj
 0003:0000cb00       $SG22188                   100a7b00     cg_main.obj
 0003:0000cb04       $SG22189                   100a7b04     cg_main.obj
 0003:0000cb10       $SG22219                   100a7b10     cg_main.obj
 0003:0000cb1c       $SG22221                   100a7b1c     cg_main.obj
 0003:0000cb28       $SG22223                   100a7b28     cg_main.obj
 0003:0000cb34       $SG22266                   100a7b34     cg_main.obj
 0003:0000cb3c       $SG22267                   100a7b3c     cg_main.obj
 0003:0000cb48       $SG22306                   100a7b48     cg_main.obj
 0003:0000cb54       $SG22408                   100a7b54     cg_main.obj
 0003:0000cb80       $SG22411                   100a7b80     cg_main.obj
 0003:0000cb84       $SG22419                   100a7b84     cg_main.obj
 0003:0000cb88       $SG22421                   100a7b88     cg_main.obj
 0003:0000cb90       $SG22423                   100a7b90     cg_main.obj
 0003:0000cb9c       $SG22443                   100a7b9c     cg_main.obj
 0003:0000cbac       $SG22464                   100a7bac     cg_main.obj
 0003:0000cbc4       $SG22466                   100a7bc4     cg_main.obj
 0003:0000cbd8       $SG22477                   100a7bd8     cg_main.obj
 0003:0000cbe4       $SG22479                   100a7be4     cg_main.obj
 0003:0000cbf0       $SG22480                   100a7bf0     cg_main.obj
 0003:0000cbfc       $SG22482                   100a7bfc     cg_main.obj
 0003:0000cc08       $SG22483                   100a7c08     cg_main.obj
 0003:0000cc18       $SG22485                   100a7c18     cg_main.obj
 0003:0000cc28       $SG22486                   100a7c28     cg_main.obj
 0003:0000cc34       $SG22488                   100a7c34     cg_main.obj
 0003:0000cc40       $SG22489                   100a7c40     cg_main.obj
 0003:0000cc48       $SG22491                   100a7c48     cg_main.obj
 0003:0000cc50       $SG22492                   100a7c50     cg_main.obj
 0003:0000cc58       $SG22494                   100a7c58     cg_main.obj
 0003:0000cc60       $SG22495                   100a7c60     cg_main.obj
 0003:0000cc68       $SG22497                   100a7c68     cg_main.obj
 0003:0000cc70       $SG22527                   100a7c70     cg_main.obj
 0003:0000cc7c       $SG22550                   100a7c7c     cg_main.obj
 0003:0000cc80       $SG22551                   100a7c80     cg_main.obj
 0003:0000cc90       $SG22558                   100a7c90     cg_main.obj
 0003:0000ccac       ?capturedSamples@?BF@??CG_RegisterSounds@@9@9 100a7cac     cg_main.obj
 0003:0000ccc0       ?lostSamples@?BF@??CG_RegisterSounds@@9@9 100a7cc0     cg_main.obj
 0003:0000ccd4       $SG22621                   100a7cd4     cg_main.obj
 0003:0000cce0       $SG22622                   100a7ce0     cg_main.obj
 0003:0000cce8       $SG22623                   100a7ce8     cg_main.obj
 0003:0000ccf0       $SG22625                   100a7cf0     cg_main.obj
 0003:0000ccf8       $SG22626                   100a7cf8     cg_main.obj
 0003:0000ccfc       $SG22628                   100a7cfc     cg_main.obj
 0003:0000cd00       $SG22629                   100a7d00     cg_main.obj
 0003:0000cd04       $SG22631                   100a7d04     cg_main.obj
 0003:0000cd08       $SG22632                   100a7d08     cg_main.obj
 0003:0000cd10       $SG22634                   100a7d10     cg_main.obj
 0003:0000cd18       $SG22635                   100a7d18     cg_main.obj
 0003:0000cd2c       $SG22637                   100a7d2c     cg_main.obj
 0003:0000cd40       $SG22638                   100a7d40     cg_main.obj
 0003:0000cd50       $SG22640                   100a7d50     cg_main.obj
 0003:0000cd60       $SG22641                   100a7d60     cg_main.obj
 0003:0000cd80       $SG22642                   100a7d80     cg_main.obj
 0003:0000cd88       $SG22643                   100a7d88     cg_main.obj
 0003:0000cd94       $SG22644                   100a7d94     cg_main.obj
 0003:0000cd9c       $SG22647                   100a7d9c     cg_main.obj
 0003:0000cdc4       $SG22648                   100a7dc4     cg_main.obj
 0003:0000cde0       $SG22649                   100a7de0     cg_main.obj
 0003:0000ce00       $SG22650                   100a7e00     cg_main.obj
 0003:0000ce20       $SG22651                   100a7e20     cg_main.obj
 0003:0000ce40       $SG22652                   100a7e40     cg_main.obj
 0003:0000ce64       $SG22653                   100a7e64     cg_main.obj
 0003:0000ce88       $SG22654                   100a7e88     cg_main.obj
 0003:0000ce94       $SG22656                   100a7e94     cg_main.obj
 0003:0000cea0       $SG22657                   100a7ea0     cg_main.obj
 0003:0000ceac       $SG22659                   100a7eac     cg_main.obj
 0003:0000ceb8       $SG22660                   100a7eb8     cg_main.obj
 0003:0000cec8       $SG22662                   100a7ec8     cg_main.obj
 0003:0000ced8       $SG22663                   100a7ed8     cg_main.obj
 0003:0000cee8       $SG22665                   100a7ee8     cg_main.obj
 0003:0000cef8       $SG22666                   100a7ef8     cg_main.obj
 0003:0000cf04       $SG22668                   100a7f04     cg_main.obj
 0003:0000cf10       $SG22669                   100a7f10     cg_main.obj
 0003:0000cf1c       $SG22671                   100a7f1c     cg_main.obj
 0003:0000cf28       $SG22672                   100a7f28     cg_main.obj
 0003:0000cf38       $SG22674                   100a7f38     cg_main.obj
 0003:0000cf48       $SG22675                   100a7f48     cg_main.obj
 0003:0000cf68       $SG22676                   100a7f68     cg_main.obj
 0003:0000cf90       $SG22677                   100a7f90     cg_main.obj
 0003:0000cfb8       $SG22678                   100a7fb8     cg_main.obj
 0003:0000cfe0       $SG22679                   100a7fe0     cg_main.obj
 0003:0000d008       $SG22680                   100a8008     cg_main.obj
 0003:0000d030       $SG22681                   100a8030     cg_main.obj
 0003:0000d058       $SG22684                   100a8058     cg_main.obj
 0003:0000d07c       $SG22685                   100a807c     cg_main.obj
 0003:0000d0a4       $SG22686                   100a80a4     cg_main.obj
 0003:0000d0c8       $SG22687                   100a80c8     cg_main.obj
 0003:0000d0ec       $SG22690                   100a80ec     cg_main.obj
 0003:0000d114       $SG22691                   100a8114     cg_main.obj
 0003:0000d138       $SG22692                   100a8138     cg_main.obj
 0003:0000d15c       $SG22695                   100a815c     cg_main.obj
 0003:0000d17c       $SG22696                   100a817c     cg_main.obj
 0003:0000d19c       $SG22699                   100a819c     cg_main.obj
 0003:0000d1c0       $SG22714                   100a81c0     cg_main.obj
 0003:0000d1e8       $SG22715                   100a81e8     cg_main.obj
 0003:0000d210       $SG22716                   100a8210     cg_main.obj
 0003:0000d22c       $SG22717                   100a822c     cg_main.obj
 0003:0000d244       $SG22718                   100a8244     cg_main.obj
 0003:0000d260       $SG22719                   100a8260     cg_main.obj
 0003:0000d284       $SG22720                   100a8284     cg_main.obj
 0003:0000d2a8       $SG22721                   100a82a8     cg_main.obj
 0003:0000d2cc       $SG22722                   100a82cc     cg_main.obj
 0003:0000d2f0       $SG22723                   100a82f0     cg_main.obj
 0003:0000d314       $SG22726                   100a8314     cg_main.obj
 0003:0000d32c       $SG22727                   100a832c     cg_main.obj
 0003:0000d344       $SG22728                   100a8344     cg_main.obj
 0003:0000d35c       $SG22729                   100a835c     cg_main.obj
 0003:0000d374       $SG22730                   100a8374     cg_main.obj
 0003:0000d390       $SG22731                   100a8390     cg_main.obj
 0003:0000d3ac       $SG22732                   100a83ac     cg_main.obj
 0003:0000d3c8       $SG22733                   100a83c8     cg_main.obj
 0003:0000d3e4       $SG22734                   100a83e4     cg_main.obj
 0003:0000d400       $SG22735                   100a8400     cg_main.obj
 0003:0000d420       $SG22736                   100a8420     cg_main.obj
 0003:0000d440       $SG22737                   100a8440     cg_main.obj
 0003:0000d460       $SG22738                   100a8460     cg_main.obj
 0003:0000d480       $SG22739                   100a8480     cg_main.obj
 0003:0000d4a0       $SG22740                   100a84a0     cg_main.obj
 0003:0000d4c0       $SG22741                   100a84c0     cg_main.obj
 0003:0000d4e0       $SG22742                   100a84e0     cg_main.obj
 0003:0000d500       $SG22743                   100a8500     cg_main.obj
 0003:0000d520       $SG22744                   100a8520     cg_main.obj
 0003:0000d538       $SG22745                   100a8538     cg_main.obj
 0003:0000d554       $SG22746                   100a8554     cg_main.obj
 0003:0000d570       $SG22747                   100a8570     cg_main.obj
 0003:0000d58c       $SG22748                   100a858c     cg_main.obj
 0003:0000d5a4       $SG22749                   100a85a4     cg_main.obj
 0003:0000d5bc       $SG22750                   100a85bc     cg_main.obj
 0003:0000d5d8       $SG22751                   100a85d8     cg_main.obj
 0003:0000d5f4       $SG22752                   100a85f4     cg_main.obj
 0003:0000d60c       $SG22753                   100a860c     cg_main.obj
 0003:0000d628       $SG22754                   100a8628     cg_main.obj
 0003:0000d640       $SG22755                   100a8640     cg_main.obj
 0003:0000d658       $SG22756                   100a8658     cg_main.obj
 0003:0000d670       $SG22757                   100a8670     cg_main.obj
 0003:0000d68c       $SG22758                   100a868c     cg_main.obj
 0003:0000d6a8       $SG22759                   100a86a8     cg_main.obj
 0003:0000d6c8       $SG22760                   100a86c8     cg_main.obj
 0003:0000d6e8       $SG22761                   100a86e8     cg_main.obj
 0003:0000d708       $SG22762                   100a8708     cg_main.obj
 0003:0000d728       $SG22763                   100a8728     cg_main.obj
 0003:0000d744       $SG22764                   100a8744     cg_main.obj
 0003:0000d764       $SG22765                   100a8764     cg_main.obj
 0003:0000d780       $SG22766                   100a8780     cg_main.obj
 0003:0000d79c       $SG22767                   100a879c     cg_main.obj
 0003:0000d7c0       $SG22768                   100a87c0     cg_main.obj
 0003:0000d7e4       $SG22769                   100a87e4     cg_main.obj
 0003:0000d808       $SG22770                   100a8808     cg_main.obj
 0003:0000d814       $SG22772                   100a8814     cg_main.obj
 0003:0000d820       $SG22773                   100a8820     cg_main.obj
 0003:0000d82c       $SG22775                   100a882c     cg_main.obj
 0003:0000d838       $SG22776                   100a8838     cg_main.obj
 0003:0000d844       $SG22778                   100a8844     cg_main.obj
 0003:0000d850       $SG22779                   100a8850     cg_main.obj
 0003:0000d858       $SG22781                   100a8858     cg_main.obj
 0003:0000d860       $SG22782                   100a8860     cg_main.obj
 0003:0000d868       $SG22784                   100a8868     cg_main.obj
 0003:0000d870       $SG22785                   100a8870     cg_main.obj
 0003:0000d878       $SG22787                   100a8878     cg_main.obj
 0003:0000d880       $SG22788                   100a8880     cg_main.obj
 0003:0000d88c       $SG22790                   100a888c     cg_main.obj
 0003:0000d898       $SG22791                   100a8898     cg_main.obj
 0003:0000d8a0       $SG22793                   100a88a0     cg_main.obj
 0003:0000d8a8       $SG22794                   100a88a8     cg_main.obj
 0003:0000d8b4       $SG22796                   100a88b4     cg_main.obj
 0003:0000d8c0       $SG22797                   100a88c0     cg_main.obj
 0003:0000d8cc       $SG22799                   100a88cc     cg_main.obj
 0003:0000d8d4       $SG22800                   100a88d4     cg_main.obj
 0003:0000d8e0       $SG22802                   100a88e0     cg_main.obj
 0003:0000d8e8       $SG22803                   100a88e8     cg_main.obj
 0003:0000d8f4       $SG22805                   100a88f4     cg_main.obj
 0003:0000d8fc       $SG22806                   100a88fc     cg_main.obj
 0003:0000d908       $SG22808                   100a8908     cg_main.obj
 0003:0000d910       $SG22809                   100a8910     cg_main.obj
 0003:0000d91c       $SG22811                   100a891c     cg_main.obj
 0003:0000d924       $SG22812                   100a8924     cg_main.obj
 0003:0000d930       $SG22814                   100a8930     cg_main.obj
 0003:0000d938       $SG22815                   100a8938     cg_main.obj
 0003:0000d944       $SG22817                   100a8944     cg_main.obj
 0003:0000d950       $SG22818                   100a8950     cg_main.obj
 0003:0000d95c       $SG22820                   100a895c     cg_main.obj
 0003:0000d968       $SG22821                   100a8968     cg_main.obj
 0003:0000d974       $SG22823                   100a8974     cg_main.obj
 0003:0000d980       $SG22824                   100a8980     cg_main.obj
 0003:0000d98c       $SG22826                   100a898c     cg_main.obj
 0003:0000d998       $SG22827                   100a8998     cg_main.obj
 0003:0000d9a8       $SG22829                   100a89a8     cg_main.obj
 0003:0000d9b8       $SG22830                   100a89b8     cg_main.obj
 0003:0000d9d8       $SG22831                   100a89d8     cg_main.obj
 0003:0000d9f4       $SG22832                   100a89f4     cg_main.obj
 0003:0000da10       $SG22833                   100a8a10     cg_main.obj
 0003:0000da2c       $SG22834                   100a8a2c     cg_main.obj
 0003:0000da4c       $SG22835                   100a8a4c     cg_main.obj
 0003:0000da6c       $SG22836                   100a8a6c     cg_main.obj
 0003:0000da88       $SG22837                   100a8a88     cg_main.obj
 0003:0000daa4       $SG22838                   100a8aa4     cg_main.obj
 0003:0000dac0       $SG22839                   100a8ac0     cg_main.obj
 0003:0000dad8       $SG22840                   100a8ad8     cg_main.obj
 0003:0000dafc       $SG22841                   100a8afc     cg_main.obj
 0003:0000db20       $SG22842                   100a8b20     cg_main.obj
 0003:0000db44       $SG22843                   100a8b44     cg_main.obj
 0003:0000db68       $SG22844                   100a8b68     cg_main.obj
 0003:0000db8c       $SG22845                   100a8b8c     cg_main.obj
 0003:0000dbb0       $SG22846                   100a8bb0     cg_main.obj
 0003:0000dbd4       $SG22847                   100a8bd4     cg_main.obj
 0003:0000dbf8       $SG22848                   100a8bf8     cg_main.obj
 0003:0000dc1c       $SG22851                   100a8c1c     cg_main.obj
 0003:0000dc34       $SG22852                   100a8c34     cg_main.obj
 0003:0000dc50       $SG22853                   100a8c50     cg_main.obj
 0003:0000dc68       $SG22854                   100a8c68     cg_main.obj
 0003:0000dc8c       $SG22855                   100a8c8c     cg_main.obj
 0003:0000dcb0       $SG22856                   100a8cb0     cg_main.obj
 0003:0000dcd4       $SG22857                   100a8cd4     cg_main.obj
 0003:0000dcf8       $SG22858                   100a8cf8     cg_main.obj
 0003:0000dd1c       $SG22859                   100a8d1c     cg_main.obj
 0003:0000dd40       $SG22860                   100a8d40     cg_main.obj
 0003:0000dd64       $SG22861                   100a8d64     cg_main.obj
 0003:0000dd88       $SG22862                   100a8d88     cg_main.obj
 0003:0000ddac       $SG22863                   100a8dac     cg_main.obj
 0003:0000ddd0       $SG22864                   100a8dd0     cg_main.obj
 0003:0000ddf4       $SG22865                   100a8df4     cg_main.obj
 0003:0000de18       $SG22866                   100a8e18     cg_main.obj
 0003:0000de3c       $SG22867                   100a8e3c     cg_main.obj
 0003:0000de60       $SG22868                   100a8e60     cg_main.obj
 0003:0000de80       $SG22869                   100a8e80     cg_main.obj
 0003:0000de9c       $SG22870                   100a8e9c     cg_main.obj
 0003:0000deb8       $SG22871                   100a8eb8     cg_main.obj
 0003:0000ded8       $SG22872                   100a8ed8     cg_main.obj
 0003:0000def8       $SG22873                   100a8ef8     cg_main.obj
 0003:0000df18       $SG22874                   100a8f18     cg_main.obj
 0003:0000df30       $SG22875                   100a8f30     cg_main.obj
 0003:0000df54       $SG22876                   100a8f54     cg_main.obj
 0003:0000df78       $SG22877                   100a8f78     cg_main.obj
 0003:0000df9c       $SG22878                   100a8f9c     cg_main.obj
 0003:0000dfc0       $SG22879                   100a8fc0     cg_main.obj
 0003:0000dfd8       $SG22880                   100a8fd8     cg_main.obj
 0003:0000dff4       $SG22881                   100a8ff4     cg_main.obj
 0003:0000e010       $SG22882                   100a9010     cg_main.obj
 0003:0000e034       $SG22883                   100a9034     cg_main.obj
 0003:0000e058       $SG22884                   100a9058     cg_main.obj
 0003:0000e078       $SG22885                   100a9078     cg_main.obj
 0003:0000e098       $SG22886                   100a9098     cg_main.obj
 0003:0000e0b8       $SG22887                   100a90b8     cg_main.obj
 0003:0000e0d8       $SG22888                   100a90d8     cg_main.obj
 0003:0000e0f8       $SG22889                   100a90f8     cg_main.obj
 0003:0000e118       $SG22890                   100a9118     cg_main.obj
 0003:0000e13c       $SG22891                   100a913c     cg_main.obj
 0003:0000e15c       $SG22892                   100a915c     cg_main.obj
 0003:0000e178       $SG22893                   100a9178     cg_main.obj
 0003:0000e198       $SG22894                   100a9198     cg_main.obj
 0003:0000e1b8       $SG22895                   100a91b8     cg_main.obj
 0003:0000e1d8       $SG22896                   100a91d8     cg_main.obj
 0003:0000e1f8       $SG22897                   100a91f8     cg_main.obj
 0003:0000e218       $SG22898                   100a9218     cg_main.obj
 0003:0000e238       $SG22899                   100a9238     cg_main.obj
 0003:0000e258       $SG22900                   100a9258     cg_main.obj
 0003:0000e278       $SG22901                   100a9278     cg_main.obj
 0003:0000e298       $SG22902                   100a9298     cg_main.obj
 0003:0000e2bc       $SG22903                   100a92bc     cg_main.obj
 0003:0000e2dc       $SG22904                   100a92dc     cg_main.obj
 0003:0000e2f8       $SG22905                   100a92f8     cg_main.obj
 0003:0000e318       $SG22906                   100a9318     cg_main.obj
 0003:0000e338       $SG22907                   100a9338     cg_main.obj
 0003:0000e358       ?sb_nums@?1??CG_RegisterGraphics@@9@9 100a9358     cg_main.obj
 0003:0000e384       $SG22961                   100a9384     cg_main.obj
 0003:0000e390       $SG22962                   100a9390     cg_main.obj
 0003:0000e3a4       $SG22963                   100a93a4     cg_main.obj
 0003:0000e3b8       $SG22964                   100a93b8     cg_main.obj
 0003:0000e3cc       $SG22965                   100a93cc     cg_main.obj
 0003:0000e3e0       $SG22966                   100a93e0     cg_main.obj
 0003:0000e3f4       $SG22969                   100a93f4     cg_main.obj
 0003:0000e404       $SG22970                   100a9404     cg_main.obj
 0003:0000e418       $SG22971                   100a9418     cg_main.obj
 0003:0000e42c       $SG22972                   100a942c     cg_main.obj
 0003:0000e440       $SG22973                   100a9440     cg_main.obj
 0003:0000e454       $SG22974                   100a9454     cg_main.obj
 0003:0000e468       $SG22975                   100a9468     cg_main.obj
 0003:0000e48c       $SG22976                   100a948c     cg_main.obj
 0003:0000e4b0       $SG22977                   100a94b0     cg_main.obj
 0003:0000e4c8       $SG22978                   100a94c8     cg_main.obj
 0003:0000e4e4       $SG22979                   100a94e4     cg_main.obj
 0003:0000e508       $SG22980                   100a9508     cg_main.obj
 0003:0000e52c       $SG22981                   100a952c     cg_main.obj
 0003:0000e538       $SG22982                   100a9538     cg_main.obj
 0003:0000e544       $SG22983                   100a9544     cg_main.obj
 0003:0000e558       $SG22984                   100a9558     cg_main.obj
 0003:0000e56c       $SG22985                   100a956c     cg_main.obj
 0003:0000e578       $SG22986                   100a9578     cg_main.obj
 0003:0000e598       $SG22987                   100a9598     cg_main.obj
 0003:0000e5a8       $SG22988                   100a95a8     cg_main.obj
 0003:0000e5b4       $SG22991                   100a95b4     cg_main.obj
 0003:0000e5c0       $SG22992                   100a95c0     cg_main.obj
 0003:0000e5cc       $SG22993                   100a95cc     cg_main.obj
 0003:0000e5d8       $SG22994                   100a95d8     cg_main.obj
 0003:0000e5e4       $SG22995                   100a95e4     cg_main.obj
 0003:0000e5f0       $SG22996                   100a95f0     cg_main.obj
 0003:0000e600       $SG22997                   100a9600     cg_main.obj
 0003:0000e60c       $SG22998                   100a960c     cg_main.obj
 0003:0000e61c       $SG22999                   100a961c     cg_main.obj
 0003:0000e628       $SG23000                   100a9628     cg_main.obj
 0003:0000e63c       $SG23001                   100a963c     cg_main.obj
 0003:0000e64c       $SG23002                   100a964c     cg_main.obj
 0003:0000e660       $SG23003                   100a9660     cg_main.obj
 0003:0000e670       $SG23004                   100a9670     cg_main.obj
 0003:0000e680       $SG23005                   100a9680     cg_main.obj
 0003:0000e690       $SG23006                   100a9690     cg_main.obj
 0003:0000e6a8       $SG23007                   100a96a8     cg_main.obj
 0003:0000e6c0       $SG23008                   100a96c0     cg_main.obj
 0003:0000e6d8       $SG23009                   100a96d8     cg_main.obj
 0003:0000e6f0       $SG23010                   100a96f0     cg_main.obj
 0003:0000e70c       $SG23011                   100a970c     cg_main.obj
 0003:0000e728       $SG23012                   100a9728     cg_main.obj
 0003:0000e744       $SG23013                   100a9744     cg_main.obj
 0003:0000e760       $SG23014                   100a9760     cg_main.obj
 0003:0000e770       $SG23015                   100a9770     cg_main.obj
 0003:0000e784       $SG23016                   100a9784     cg_main.obj
 0003:0000e798       $SG23017                   100a9798     cg_main.obj
 0003:0000e7b0       $SG23018                   100a97b0     cg_main.obj
 0003:0000e7c8       $SG23019                   100a97c8     cg_main.obj
 0003:0000e7d8       $SG23020                   100a97d8     cg_main.obj
 0003:0000e7e8       $SG23021                   100a97e8     cg_main.obj
 0003:0000e7fc       $SG23022                   100a97fc     cg_main.obj
 0003:0000e810       $SG23023                   100a9810     cg_main.obj
 0003:0000e828       $SG23024                   100a9828     cg_main.obj
 0003:0000e840       $SG23025                   100a9840     cg_main.obj
 0003:0000e858       $SG23026                   100a9858     cg_main.obj
 0003:0000e870       $SG23027                   100a9870     cg_main.obj
 0003:0000e890       $SG23028                   100a9890     cg_main.obj
 0003:0000e8b4       $SG23029                   100a98b4     cg_main.obj
 0003:0000e8dc       $SG23030                   100a98dc     cg_main.obj
 0003:0000e8f4       $SG23031                   100a98f4     cg_main.obj
 0003:0000e910       $SG23032                   100a9910     cg_main.obj
 0003:0000e928       $SG23033                   100a9928     cg_main.obj
 0003:0000e93c       $SG23036                   100a993c     cg_main.obj
 0003:0000e95c       $SG23037                   100a995c     cg_main.obj
 0003:0000e97c       $SG23038                   100a997c     cg_main.obj
 0003:0000e98c       $SG23039                   100a998c     cg_main.obj
 0003:0000e9a0       $SG23042                   100a99a0     cg_main.obj
 0003:0000e9b8       $SG23045                   100a99b8     cg_main.obj
 0003:0000e9d0       $SG23046                   100a99d0     cg_main.obj
 0003:0000e9e8       $SG23047                   100a99e8     cg_main.obj
 0003:0000e9fc       $SG23048                   100a99fc     cg_main.obj
 0003:0000ea10       $SG23049                   100a9a10     cg_main.obj
 0003:0000ea24       $SG23050                   100a9a24     cg_main.obj
 0003:0000ea38       $SG23051                   100a9a38     cg_main.obj
 0003:0000ea4c       $SG23052                   100a9a4c     cg_main.obj
 0003:0000ea60       $SG23053                   100a9a60     cg_main.obj
 0003:0000ea7c       $SG23054                   100a9a7c     cg_main.obj
 0003:0000ea98       $SG23055                   100a9a98     cg_main.obj
 0003:0000eab0       $SG23056                   100a9ab0     cg_main.obj
 0003:0000eac8       $SG23057                   100a9ac8     cg_main.obj
 0003:0000eae0       $SG23058                   100a9ae0     cg_main.obj
 0003:0000eb08       $SG23059                   100a9b08     cg_main.obj
 0003:0000eb34       $SG23060                   100a9b34     cg_main.obj
 0003:0000eb60       $SG23063                   100a9b60     cg_main.obj
 0003:0000eb78       $SG23064                   100a9b78     cg_main.obj
 0003:0000eb90       $SG23065                   100a9b90     cg_main.obj
 0003:0000eba4       $SG23066                   100a9ba4     cg_main.obj
 0003:0000ebb8       $SG23067                   100a9bb8     cg_main.obj
 0003:0000ebd0       $SG23070                   100a9bd0     cg_main.obj
 0003:0000ebf4       $SG23071                   100a9bf4     cg_main.obj
 0003:0000ec18       $SG23072                   100a9c18     cg_main.obj
 0003:0000ec3c       $SG23073                   100a9c3c     cg_main.obj
 0003:0000ec60       $SG23076                   100a9c60     cg_main.obj
 0003:0000ec88       $SG23077                   100a9c88     cg_main.obj
 0003:0000ecac       $SG23078                   100a9cac     cg_main.obj
 0003:0000ecd0       $SG23079                   100a9cd0     cg_main.obj
 0003:0000ecf4       $SG23102                   100a9cf4     cg_main.obj
 0003:0000ed1c       $SG23103                   100a9d1c     cg_main.obj
 0003:0000ed44       $SG23104                   100a9d44     cg_main.obj
 0003:0000ed6c       $SG23105                   100a9d6c     cg_main.obj
 0003:0000ed94       $SG23106                   100a9d94     cg_main.obj
 0003:0000edb0       $SG23107                   100a9db0     cg_main.obj
 0003:0000edc0       $SG23110                   100a9dc0     cg_main.obj
 0003:0000edcc       $SG23113                   100a9dcc     cg_main.obj
 0003:0000eddc       $SG23114                   100a9ddc     cg_main.obj
 0003:0000edf0       $SG23115                   100a9df0     cg_main.obj
 0003:0000ee04       $SG23116                   100a9e04     cg_main.obj
 0003:0000ee20       $SG23117                   100a9e20     cg_main.obj
 0003:0000ee38       $SG23118                   100a9e38     cg_main.obj
 0003:0000ee50       $SG23119                   100a9e50     cg_main.obj
 0003:0000ee68       $SG23120                   100a9e68     cg_main.obj
 0003:0000ee8c       $SG23121                   100a9e8c     cg_main.obj
 0003:0000eea0       $SG23122                   100a9ea0     cg_main.obj
 0003:0000eec4       $SG23123                   100a9ec4     cg_main.obj
 0003:0000eee8       $SG23126                   100a9ee8     cg_main.obj
 0003:0000ef00       $SG23127                   100a9f00     cg_main.obj
 0003:0000ef14       $SG23128                   100a9f14     cg_main.obj
 0003:0000ef28       $SG23129                   100a9f28     cg_main.obj
 0003:0000ef3c       $SG23130                   100a9f3c     cg_main.obj
 0003:0000ef50       $SG23131                   100a9f50     cg_main.obj
 0003:0000ef68       $SG23132                   100a9f68     cg_main.obj
 0003:0000ef80       $SG23133                   100a9f80     cg_main.obj
 0003:0000ef94       $SG23134                   100a9f94     cg_main.obj
 0003:0000efa8       $SG23135                   100a9fa8     cg_main.obj
 0003:0000efbc       $SG23136                   100a9fbc     cg_main.obj
 0003:0000efd4       $SG23137                   100a9fd4     cg_main.obj
 0003:0000efe8       $SG23138                   100a9fe8     cg_main.obj
 0003:0000f000       $SG23139                   100aa000     cg_main.obj
 0003:0000f018       $SG23140                   100aa018     cg_main.obj
 0003:0000f030       $SG23141                   100aa030     cg_main.obj
 0003:0000f048       $SG23142                   100aa048     cg_main.obj
 0003:0000f064       $SG23143                   100aa064     cg_main.obj
 0003:0000f078       $SG23144                   100aa078     cg_main.obj
 0003:0000f090       $SG23145                   100aa090     cg_main.obj
 0003:0000f0a8       $SG23146                   100aa0a8     cg_main.obj
 0003:0000f0c0       $SG23147                   100aa0c0     cg_main.obj
 0003:0000f0e4       $SG23148                   100aa0e4     cg_main.obj
 0003:0000f0f8       $SG23149                   100aa0f8     cg_main.obj
 0003:0000f108       $SG23150                   100aa108     cg_main.obj
 0003:0000f114       $SG23151                   100aa114     cg_main.obj
 0003:0000f130       $SG23152                   100aa130     cg_main.obj
 0003:0000f14c       $SG23153                   100aa14c     cg_main.obj
 0003:0000f168       $SG23154                   100aa168     cg_main.obj
 0003:0000f180       $SG23155                   100aa180     cg_main.obj
 0003:0000f1a0       $SG23156                   100aa1a0     cg_main.obj
 0003:0000f1bc       $SG23157                   100aa1bc     cg_main.obj
 0003:0000f1dc       $SG23158                   100aa1dc     cg_main.obj
 0003:0000f1fc       $SG23159                   100aa1fc     cg_main.obj
 0003:0000f220       $SG23160                   100aa220     cg_main.obj
 0003:0000f244       $SG23161                   100aa244     cg_main.obj
 0003:0000f268       $SG23162                   100aa268     cg_main.obj
 0003:0000f288       $SG23163                   100aa288     cg_main.obj
 0003:0000f2ac       $SG23166                   100aa2ac     cg_main.obj
 0003:0000f2c0       $SG23167                   100aa2c0     cg_main.obj
 0003:0000f2e4       $SG23168                   100aa2e4     cg_main.obj
 0003:0000f300       $SG23169                   100aa300     cg_main.obj
 0003:0000f328       $SG23170                   100aa328     cg_main.obj
 0003:0000f34c       $SG23171                   100aa34c     cg_main.obj
 0003:0000f360       $SG23172                   100aa360     cg_main.obj
 0003:0000f370       $SG23173                   100aa370     cg_main.obj
 0003:0000f380       $SG23174                   100aa380     cg_main.obj
 0003:0000f390       $SG23175                   100aa390     cg_main.obj
 0003:0000f3a0       $SG23176                   100aa3a0     cg_main.obj
 0003:0000f3b0       $SG23177                   100aa3b0     cg_main.obj
 0003:0000f3c0       $SG23178                   100aa3c0     cg_main.obj
 0003:0000f3d0       $SG23179                   100aa3d0     cg_main.obj
 0003:0000f3e0       $SG23180                   100aa3e0     cg_main.obj
 0003:0000f3f0       $SG23181                   100aa3f0     cg_main.obj
 0003:0000f404       $SG23182                   100aa404     cg_main.obj
 0003:0000f414       $SG23183                   100aa414     cg_main.obj
 0003:0000f424       $SG23184                   100aa424     cg_main.obj
 0003:0000f434       $SG23185                   100aa434     cg_main.obj
 0003:0000f444       $SG23186                   100aa444     cg_main.obj
 0003:0000f454       $SG23189                   100aa454     cg_main.obj
 0003:0000f46c       $SG23190                   100aa46c     cg_main.obj
 0003:0000f484       $SG23191                   100aa484     cg_main.obj
 0003:0000f48c       $SG23192                   100aa48c     cg_main.obj
 0003:0000f4a4       $SG23193                   100aa4a4     cg_main.obj
 0003:0000f4bc       $SG23194                   100aa4bc     cg_main.obj
 0003:0000f4c8       $SG23195                   100aa4c8     cg_main.obj
 0003:0000f4d0       $SG23196                   100aa4d0     cg_main.obj
 0003:0000f4dc       $SG23197                   100aa4dc     cg_main.obj
 0003:0000f4f0       $SG23198                   100aa4f0     cg_main.obj
 0003:0000f504       $SG23199                   100aa504     cg_main.obj
 0003:0000f518       $SG23200                   100aa518     cg_main.obj
 0003:0000f52c       $SG23201                   100aa52c     cg_main.obj
 0003:0000f544       $SG23202                   100aa544     cg_main.obj
 0003:0000f55c       $SG23203                   100aa55c     cg_main.obj
 0003:0000f570       $SG23204                   100aa570     cg_main.obj
 0003:0000f588       $SG23205                   100aa588     cg_main.obj
 0003:0000f5a0       $SG23206                   100aa5a0     cg_main.obj
 0003:0000f5a4       $SG23208                   100aa5a4     cg_main.obj
 0003:0000f5c4       $SG23209                   100aa5c4     cg_main.obj
 0003:0000f5e4       $SG23210                   100aa5e4     cg_main.obj
 0003:0000f604       $SG23211                   100aa604     cg_main.obj
 0003:0000f624       $SG23212                   100aa624     cg_main.obj
 0003:0000f644       $SG23213                   100aa644     cg_main.obj
 0003:0000f668       $SG23214                   100aa668     cg_main.obj
 0003:0000f68c       $SG23215                   100aa68c     cg_main.obj
 0003:0000f6ac       $SG23216                   100aa6ac     cg_main.obj
 0003:0000f6c0       $SG23217                   100aa6c0     cg_main.obj
 0003:0000f6dc       $SG23218                   100aa6dc     cg_main.obj
 0003:0000f6f8       $SG23219                   100aa6f8     cg_main.obj
 0003:0000f720       $SG23220                   100aa720     cg_main.obj
 0003:0000f748       $SG23221                   100aa748     cg_main.obj
 0003:0000f770       $SG23222                   100aa770     cg_main.obj
 0003:0000f784       $SG23223                   100aa784     cg_main.obj
 0003:0000f79c       $SG23224                   100aa79c     cg_main.obj
 0003:0000f7b0       $SG23225                   100aa7b0     cg_main.obj
 0003:0000f7d0       $SG23226                   100aa7d0     cg_main.obj
 0003:0000f7f0       $SG23227                   100aa7f0     cg_main.obj
 0003:0000f818       $SG23228                   100aa818     cg_main.obj
 0003:0000f838       $SG23229                   100aa838     cg_main.obj
 0003:0000f858       $SG23230                   100aa858     cg_main.obj
 0003:0000f880       $SG23270                   100aa880     cg_main.obj
 0003:0000f888       $SG23273                   100aa888     cg_main.obj
 0003:0000f898       $SG23278                   100aa898     cg_main.obj
 0003:0000f8a8       $SG23281                   100aa8a8     cg_main.obj
 0003:0000f8b0       $SG23301                   100aa8b0     cg_main.obj
 0003:0000f8d0       $SG23320                   100aa8d0     cg_main.obj
 0003:0000f8fc       $SG23322                   100aa8fc     cg_main.obj
 0003:0000f930       $SG23336                   100aa930     cg_main.obj
 0003:0000f934       $SG23339                   100aa934     cg_main.obj
 0003:0000f938       $SG23341                   100aa938     cg_main.obj
 0003:0000f940       $SG23345                   100aa940     cg_main.obj
 0003:0000f94c       $SG23349                   100aa94c     cg_main.obj
 0003:0000f954       $SG23353                   100aa954     cg_main.obj
 0003:0000f960       $SG23356                   100aa960     cg_main.obj
 0003:0000f970       $SG23359                   100aa970     cg_main.obj
 0003:0000f980       $SG23362                   100aa980     cg_main.obj
 0003:0000f990       $SG23365                   100aa990     cg_main.obj
 0003:0000f9a0       $SG23368                   100aa9a0     cg_main.obj
 0003:0000f9a8       $SG23371                   100aa9a8     cg_main.obj
 0003:0000f9b4       $SG23374                   100aa9b4     cg_main.obj
 0003:0000f9c0       $SG23377                   100aa9c0     cg_main.obj
 0003:0000f9cc       $SG23380                   100aa9cc     cg_main.obj
 0003:0000f9d4       $SG23383                   100aa9d4     cg_main.obj
 0003:0000f9dc       $SG23386                   100aa9dc     cg_main.obj
 0003:0000f9e8       $SG23397                   100aa9e8     cg_main.obj
 0003:0000f9f8       $SG23402                   100aa9f8     cg_main.obj
 0003:0000fa08       $SG23406                   100aaa08     cg_main.obj
 0003:0000fa10       $SG23416                   100aaa10     cg_main.obj
 0003:0000fa14       $SG23476                   100aaa14     cg_main.obj
 0003:0000fa40       $SG23477                   100aaa40     cg_main.obj
 0003:0000fa4c       $SG23479                   100aaa4c     cg_main.obj
 0003:0000fa58       $SG23480                   100aaa58     cg_main.obj
 0003:0000fa90       $SG23482                   100aaa90     cg_main.obj
 0003:0000fac4       $SG23487                   100aaac4     cg_main.obj
 0003:0000fac8       $SG23489                   100aaac8     cg_main.obj
 0003:0000fad4       $SG23492                   100aaad4     cg_main.obj
 0003:0000fafc       $SG23601                   100aaafc     cg_main.obj
 0003:0000fb10       $SG23603                   100aab10     cg_main.obj
 0003:0000fb24       $SG23605                   100aab24     cg_main.obj
 0003:0000fb38       $SG23607                   100aab38     cg_main.obj
 0003:0000fb4c       $SG23609                   100aab4c     cg_main.obj
 0003:0000fb64       $SG23611                   100aab64     cg_main.obj
 0003:0000fb7c       $SG23613                   100aab7c     cg_main.obj
 0003:0000fb94       $SG23615                   100aab94     cg_main.obj
 0003:0000fbac       $SG23617                   100aabac     cg_main.obj
 0003:0000fbc4       $SG23619                   100aabc4     cg_main.obj
 0003:0000fbdc       $SG23621                   100aabdc     cg_main.obj
 0003:0000fbf4       $SG23623                   100aabf4     cg_main.obj
 0003:0000fc0c       $SG23626                   100aac0c     cg_main.obj
 0003:0000fc1c       $SG23627                   100aac1c     cg_main.obj
 0003:0000fc2c       $SG23629                   100aac2c     cg_main.obj
 0003:0000fc3c       $SG23631                   100aac3c     cg_main.obj
 0003:0000fc4c       $SG23633                   100aac4c     cg_main.obj
 0003:0000fc5c       $SG23635                   100aac5c     cg_main.obj
 0003:0000fc6c       $SG23637                   100aac6c     cg_main.obj
 0003:0000fc80       $SG23639                   100aac80     cg_main.obj
 0003:0000fc94       $SG23641                   100aac94     cg_main.obj
 0003:0000fca8       $SG23643                   100aaca8     cg_main.obj
 0003:0000fcc0       $SG23645                   100aacc0     cg_main.obj
 0003:0000fcd0       $SG23647                   100aacd0     cg_main.obj
 0003:0000fce4       $SG23649                   100aace4     cg_main.obj
 0003:0000fcf8       $SG23651                   100aacf8     cg_main.obj
 0003:0000fd0c       $SG23653                   100aad0c     cg_main.obj
 0003:0000fd20       $SG23656                   100aad20     cg_main.obj
 0003:0000fd30       $SG23657                   100aad30     cg_main.obj
 0003:0000fd3c       $SG23711                   100aad3c     cg_main.obj
 0003:0000fd4c       $SG23712                   100aad4c     cg_main.obj
 0003:0000fd5c       $SG23713                   100aad5c     cg_main.obj
 0003:0000fd6c       $SG23714                   100aad6c     cg_main.obj
 0003:0000fd7c       $SG23795                   100aad7c     cg_main.obj
 0003:0000fd80       $SG23803                   100aad80     cg_main.obj
 0003:0000fd88       $SG23806                   100aad88     cg_main.obj
 0003:0000fd90       $SG23808                   100aad90     cg_main.obj
 0003:0000fd9c       $SG23811                   100aad9c     cg_main.obj
 0003:0000fda4       $SG23815                   100aada4     cg_main.obj
 0003:0000fda8       $SG23816                   100aada8     cg_main.obj
 0003:0000fdac       $SG23819                   100aadac     cg_main.obj
 0003:0000fdb0       $SG23820                   100aadb0     cg_main.obj
 0003:0000fdb4       $SG23824                   100aadb4     cg_main.obj
 0003:0000fdc0       $SG23825                   100aadc0     cg_main.obj
 0003:0000fdc4       $SG23827                   100aadc4     cg_main.obj
 0003:0000fdd0       $SG23828                   100aadd0     cg_main.obj
 0003:0000fdd4       $SG23873                   100aadd4     cg_main.obj
 0003:0000fdd8       $SG23880                   100aadd8     cg_main.obj
 0003:0000fde0       $SG23882                   100aade0     cg_main.obj
 0003:0000fde8       $SG23889                   100aade8     cg_main.obj
 0003:0000fdec       $SG23913                   100aadec     cg_main.obj
 0003:0000fdf0       $SG23915                   100aadf0     cg_main.obj
 0003:0000fdf4       $SG23918                   100aadf4     cg_main.obj
 0003:0000fe00       $SG23919                   100aae00     cg_main.obj
 0003:0000fe04       $SG23941                   100aae04     cg_main.obj
 0003:0000fe08       $SG23943                   100aae08     cg_main.obj
 0003:0000fe10       $SG23945                   100aae10     cg_main.obj
 0003:0000fe14       $SG23947                   100aae14     cg_main.obj
 0003:0000fe18       $SG23949                   100aae18     cg_main.obj
 0003:0000fe1c       $SG23951                   100aae1c     cg_main.obj
 0003:0000fe24       $SG23973                   100aae24     cg_main.obj
 0003:0000fe28       $SG23975                   100aae28     cg_main.obj
 0003:0000fe30       $SG23977                   100aae30     cg_main.obj
 0003:0000fe34       $SG23982                   100aae34     cg_main.obj
 0003:0000fe3c       $SG23984                   100aae3c     cg_main.obj
 0003:0000fe40       $SG24010                   100aae40     cg_main.obj
 0003:0000fe44       $SG24013                   100aae44     cg_main.obj
 0003:0000fe4c       $SG24016                   100aae4c     cg_main.obj
 0003:0000fe50       $SG24019                   100aae50     cg_main.obj
 0003:0000fe58       $SG24020                   100aae58     cg_main.obj
 0003:0000fe5c       $SG24023                   100aae5c     cg_main.obj
 0003:0000fe60       $SG24025                   100aae60     cg_main.obj
 0003:0000fe68       $SG24053                   100aae68     cg_main.obj
 0003:0000fe6c       $SG24055                   100aae6c     cg_main.obj
 0003:0000fe70       $SG24057                   100aae70     cg_main.obj
 0003:0000fe74       $SG24059                   100aae74     cg_main.obj
 0003:0000fe78       $SG24061                   100aae78     cg_main.obj
 0003:0000fe7c       $SG24063                   100aae7c     cg_main.obj
 0003:0000fe80       $SG24065                   100aae80     cg_main.obj
 0003:0000fe84       $SG24067                   100aae84     cg_main.obj
 0003:0000fe88       $SG24069                   100aae88     cg_main.obj
 0003:0000fe8c       $SG24071                   100aae8c     cg_main.obj
 0003:0000fe94       $SG24073                   100aae94     cg_main.obj
 0003:0000fe98       $SG24075                   100aae98     cg_main.obj
 0003:0000fe9c       $SG24077                   100aae9c     cg_main.obj
 0003:0000fea0       $SG24079                   100aaea0     cg_main.obj
 0003:0000fea4       $SG24081                   100aaea4     cg_main.obj
 0003:0000fea8       $SG24083                   100aaea8     cg_main.obj
 0003:0000feac       $SG24085                   100aaeac     cg_main.obj
 0003:0000feb0       $SG24111                   100aaeb0     cg_main.obj
 0003:0000feb4       $SG24113                   100aaeb4     cg_main.obj
 0003:0000feb8       $SG24115                   100aaeb8     cg_main.obj
 0003:0000febc       $SG24117                   100aaebc     cg_main.obj
 0003:0000fec0       $SG24119                   100aaec0     cg_main.obj
 0003:0000fec4       $SG24121                   100aaec4     cg_main.obj
 0003:0000fecc       $SG24123                   100aaecc     cg_main.obj
 0003:0000fed8       $SG24125                   100aaed8     cg_main.obj
 0003:0000fee4       $SG24127                   100aaee4     cg_main.obj
 0003:0000fef0       $SG24129                   100aaef0     cg_main.obj
 0003:0000fefc       $SG24131                   100aaefc     cg_main.obj
 0003:0000ff08       $SG24133                   100aaf08     cg_main.obj
 0003:0000ff14       $SG24135                   100aaf14     cg_main.obj
 0003:0000ff20       $SG24137                   100aaf20     cg_main.obj
 0003:0000ff2c       $SG24139                   100aaf2c     cg_main.obj
 0003:0000ff38       $SG24141                   100aaf38     cg_main.obj
 0003:0000ff3c       $SG24168                   100aaf3c     cg_main.obj
 0003:0000ff40       $SG24170                   100aaf40     cg_main.obj
 0003:0000ff44       $SG24172                   100aaf44     cg_main.obj
 0003:0000ff48       $SG24174                   100aaf48     cg_main.obj
 0003:0000ff4c       $SG24176                   100aaf4c     cg_main.obj
 0003:0000ff50       $SG24178                   100aaf50     cg_main.obj
 0003:0000ff54       $SG24180                   100aaf54     cg_main.obj
 0003:0000ff58       $SG24182                   100aaf58     cg_main.obj
 0003:0000ff60       $SG24184                   100aaf60     cg_main.obj
 0003:0000ff64       $SG24186                   100aaf64     cg_main.obj
 0003:0000ff68       $SG24188                   100aaf68     cg_main.obj
 0003:0000ff6c       $SG24190                   100aaf6c     cg_main.obj
 0003:0000ff70       $SG24192                   100aaf70     cg_main.obj
 0003:0000ff74       $SG24194                   100aaf74     cg_main.obj
 0003:0000ff78       $SG24196                   100aaf78     cg_main.obj
 0003:0000ff7c       $SG24198                   100aaf7c     cg_main.obj
 0003:0000ff80       $SG24200                   100aaf80     cg_main.obj
 0003:0000ff84       $SG24202                   100aaf84     cg_main.obj
 0003:0000ff88       $SG24361                   100aaf88     cg_main.obj
 0003:0000ff94       $SG24370                   100aaf94     cg_main.obj
 0003:0000ff9c       $SG24373                   100aaf9c     cg_main.obj
 0003:0000ffa8       $SG24376                   100aafa8     cg_main.obj
 0003:0000ffb8       $SG24380                   100aafb8     cg_main.obj
 0003:0000ffc0       $SG24383                   100aafc0     cg_main.obj
 0003:0000ffd0       $SG24386                   100aafd0     cg_main.obj
 0003:0000ffdc       $SG24387                   100aafdc     cg_main.obj
 0003:0000ffe8       $SG24410                   100aafe8     cg_main.obj
 0003:0000fff8       $SG24411                   100aaff8     cg_main.obj
 0003:00010004       $SG24414                   100ab004     cg_main.obj
 0003:00010010       _cgScoreTextureNames       100ab010     cg_main.obj
 0003:0001019c       $SG24586                   100ab19c     cg_main.obj
 0003:000101b8       $SG24588                   100ab1b8     cg_main.obj
 0003:000101d0       $SG24604                   100ab1d0     cg_main.obj
 0003:000101ec       $SG24606                   100ab1ec     cg_main.obj
 0003:00010218       $SG24608                   100ab218     cg_main.obj
 0003:0001025c       $SG24623                   100ab25c     cg_main.obj
 0003:00010268       $SG24624                   100ab268     cg_main.obj
 0003:00010278       $SG24632                   100ab278     cg_main.obj
 0003:00010284       $SG24633                   100ab284     cg_main.obj
 0003:00010294       $SG24634                   100ab294     cg_main.obj
 0003:000102a4       $SG24638                   100ab2a4     cg_main.obj
 0003:000102b0       $SG24640                   100ab2b0     cg_main.obj
 0003:000102bc       $SG24643                   100ab2bc     cg_main.obj
 0003:000102d8       $SG24644                   100ab2d8     cg_main.obj
 0003:000102ec       $SG24645                   100ab2ec     cg_main.obj
 0003:000102fc       $SG24646                   100ab2fc     cg_main.obj
 0003:0001030c       $SG24647                   100ab30c     cg_main.obj
 0003:0001031c       $SG24648                   100ab31c     cg_main.obj
 0003:00010330       $SG24649                   100ab330     cg_main.obj
 0003:00010344       $SG24650                   100ab344     cg_main.obj
 0003:00010358       $SG24651                   100ab358     cg_main.obj
 0003:0001036c       $SG24652                   100ab36c     cg_main.obj
 0003:00010384       $SG24653                   100ab384     cg_main.obj
 0003:000103a8       $SG24654                   100ab3a8     cg_main.obj
 0003:000103cc       $SG24655                   100ab3cc     cg_main.obj
 0003:000103f0       $SG24656                   100ab3f0     cg_main.obj
 0003:00010414       $SG24657                   100ab414     cg_main.obj
 0003:00010434       $SG24658                   100ab434     cg_main.obj
 0003:0001044c       $SG24659                   100ab44c     cg_main.obj
 0003:00010468       $SG24673                   100ab468     cg_main.obj
 0003:00010478       $SG24674                   100ab478     cg_main.obj
 0003:00010480       $SG24675                   100ab480     cg_main.obj
 0003:00010498       $SG24676                   100ab498     cg_main.obj
 0003:000104b4       $SG24677                   100ab4b4     cg_main.obj
 0003:000104cc       $SG24678                   100ab4cc     cg_main.obj
 0003:000104e8       $SG24679                   100ab4e8     cg_main.obj
 0003:00010510       $SG24680                   100ab510     cg_main.obj
 0003:00010538       $SG24681                   100ab538     cg_main.obj
 0003:00010558       $SG24682                   100ab558     cg_main.obj
 0003:00010578       $SG24683                   100ab578     cg_main.obj
 0003:0001058c       $SG24684                   100ab58c     cg_main.obj
 0003:00010590       $SG24685                   100ab590     cg_main.obj
 0003:0001059c       $SG24686                   100ab59c     cg_main.obj
 0003:000105a0       $SG24687                   100ab5a0     cg_main.obj
 0003:000105b0       $SG24688                   100ab5b0     cg_main.obj
 0003:000105b4       $SG24689                   100ab5b4     cg_main.obj
 0003:000105c0       $SG24693                   100ab5c0     cg_main.obj
 0003:000105c8       $SG24694                   100ab5c8     cg_main.obj
 0003:000105d0       $SG24695                   100ab5d0     cg_main.obj
 0003:000105f4       $SG24696                   100ab5f4     cg_main.obj
 0003:00010604       $SG24697                   100ab604     cg_main.obj
 0003:0001060c       $SG24698                   100ab60c     cg_main.obj
 0003:00010618       $SG24699                   100ab618     cg_main.obj
 0003:00010620       $SG24703                   100ab620     cg_main.obj
 0003:00010624       $SG24704                   100ab624     cg_main.obj
 0003:00010630       $SG24764                   100ab630     cg_newdraw.obj
 0003:00010640       $SG24765                   100ab640     cg_newdraw.obj
 0003:00010650       $SG24766                   100ab650     cg_newdraw.obj
 0003:00010664       $SG21014                   100ab664     cg_newdraw.obj
 0003:00010668       $SG21015                   100ab668     cg_newdraw.obj
 0003:0001066c       $SG21016                   100ab66c     cg_newdraw.obj
 0003:00010670       $SG21017                   100ab670     cg_newdraw.obj
 0003:00010674       $SG21018                   100ab674     cg_newdraw.obj
 0003:00010678       $SG21019                   100ab678     cg_newdraw.obj
 0003:0001067c       $SG21020                   100ab67c     cg_newdraw.obj
 0003:00010680       $SG21021                   100ab680     cg_newdraw.obj
 0003:00010684       $SG21022                   100ab684     cg_newdraw.obj
 0003:00010688       $SG21023                   100ab688     cg_newdraw.obj
 0003:0001068c       $SG21024                   100ab68c     cg_newdraw.obj
 0003:00010690       $SG21025                   100ab690     cg_newdraw.obj
 0003:00010694       $SG21026                   100ab694     cg_newdraw.obj
 0003:00010698       $SG21027                   100ab698     cg_newdraw.obj
 0003:0001069c       $SG21031                   100ab69c     cg_newdraw.obj
 0003:000106a0       $SG21032                   100ab6a0     cg_newdraw.obj
 0003:000106a4       $SG21033                   100ab6a4     cg_newdraw.obj
 0003:000106a8       $SG21034                   100ab6a8     cg_newdraw.obj
 0003:000106ac       $SG21035                   100ab6ac     cg_newdraw.obj
 0003:000106b0       $SG21036                   100ab6b0     cg_newdraw.obj
 0003:000106b4       $SG21037                   100ab6b4     cg_newdraw.obj
 0003:000106b8       $SG21038                   100ab6b8     cg_newdraw.obj
 0003:000106bc       $SG21039                   100ab6bc     cg_newdraw.obj
 0003:000106c0       $SG21040                   100ab6c0     cg_newdraw.obj
 0003:000106c4       $SG21041                   100ab6c4     cg_newdraw.obj
 0003:000106c8       $SG21042                   100ab6c8     cg_newdraw.obj
 0003:000106cc       _cgMonthAbbrev             100ab6cc     cg_newdraw.obj
 0003:000106fc       $SG21048                   100ab6fc     cg_newdraw.obj
 0003:00010700       $SG21296                   100ab700     cg_newdraw.obj
 0003:0001070c       $SG21297                   100ab70c     cg_newdraw.obj
 0003:0001071c       $SG21305                   100ab71c     cg_newdraw.obj
 0003:00010728       $SG21335                   100ab728     cg_newdraw.obj
 0003:00010734       $SG21366                   100ab734     cg_newdraw.obj
 0003:00010740       $SG21445                   100ab740     cg_newdraw.obj
 0003:00010750       $SG21446                   100ab750     cg_newdraw.obj
 0003:00010758       $SG21447                   100ab758     cg_newdraw.obj
 0003:00010768       $SG21534                   100ab768     cg_newdraw.obj
 0003:00010770       $SG21563                   100ab770     cg_newdraw.obj
 0003:00010778       $SG21565                   100ab778     cg_newdraw.obj
 0003:00010790       $SG21567                   100ab790     cg_newdraw.obj
 0003:000107a8       $SG21584                   100ab7a8     cg_newdraw.obj
 0003:000107b0       $SG21591                   100ab7b0     cg_newdraw.obj
 0003:000107b8       $SG21596                   100ab7b8     cg_newdraw.obj
 0003:000107cc       $SG21597                   100ab7cc     cg_newdraw.obj
 0003:000107e0       $SG21625                   100ab7e0     cg_newdraw.obj
 0003:000107e8       $SG21629                   100ab7e8     cg_newdraw.obj
 0003:000107f0       $SG21631                   100ab7f0     cg_newdraw.obj
 0003:000107f8       $SG21634                   100ab7f8     cg_newdraw.obj
 0003:00010800       $SG21635                   100ab800     cg_newdraw.obj
 0003:00010808       $SG21641                   100ab808     cg_newdraw.obj
 0003:00010818       $SG21642                   100ab818     cg_newdraw.obj
 0003:00010820       $SG21644                   100ab820     cg_newdraw.obj
 0003:0001082c       $SG21813                   100ab82c     cg_newdraw.obj
 0003:00010830       $SG21814                   100ab830     cg_newdraw.obj
 0003:0001083c       $SG21822                   100ab83c     cg_newdraw.obj
 0003:00010840       $SG21823                   100ab840     cg_newdraw.obj
 0003:00010850       $SG21825                   100ab850     cg_newdraw.obj
 0003:00010854       $SG21826                   100ab854     cg_newdraw.obj
 0003:00010864       $SG21845                   100ab864     cg_newdraw.obj
 0003:00010870       $SG21848                   100ab870     cg_newdraw.obj
 0003:00010878       $SG22007                   100ab878     cg_newdraw.obj
 0003:0001087c       $SG22029                   100ab87c     cg_newdraw.obj
 0003:00010880       $SG22104                   100ab880     cg_newdraw.obj
 0003:00010884       $SG22140                   100ab884     cg_newdraw.obj
 0003:0001089c       $SG22256                   100ab89c     cg_newdraw.obj
 0003:000108a4       $SG22282                   100ab8a4     cg_newdraw.obj
 0003:000108ac       $SG22286                   100ab8ac     cg_newdraw.obj
 0003:000108b4       $SG22288                   100ab8b4     cg_newdraw.obj
 0003:000108c0       $SG22326                   100ab8c0     cg_newdraw.obj
 0003:000108c8       $SG22339                   100ab8c8     cg_newdraw.obj
 0003:000108d0       $SG22342                   100ab8d0     cg_newdraw.obj
 0003:000108d8       $SG22398                   100ab8d8     cg_newdraw.obj
 0003:000108e8       $SG22418                   100ab8e8     cg_newdraw.obj
 0003:000108fc       $SG22437                   100ab8fc     cg_newdraw.obj
 0003:00010908       $SG22439                   100ab908     cg_newdraw.obj
 0003:00010914       $SG22441                   100ab914     cg_newdraw.obj
 0003:00010924       $SG22443                   100ab924     cg_newdraw.obj
 0003:00010930       $SG22445                   100ab930     cg_newdraw.obj
 0003:00010944       $SG22458                   100ab944     cg_newdraw.obj
 0003:00010958       $SG22459                   100ab958     cg_newdraw.obj
 0003:00010960       $SG22466                   100ab960     cg_newdraw.obj
 0003:00010964       $SG22468                   100ab964     cg_newdraw.obj
 0003:0001096c       $SG22470                   100ab96c     cg_newdraw.obj
 0003:00010974       $SG22472                   100ab974     cg_newdraw.obj
 0003:00010978       $SG22474                   100ab978     cg_newdraw.obj
 0003:0001097c       $SG22476                   100ab97c     cg_newdraw.obj
 0003:00010980       $SG22478                   100ab980     cg_newdraw.obj
 0003:00010984       $SG22480                   100ab984     cg_newdraw.obj
 0003:00010988       $SG22482                   100ab988     cg_newdraw.obj
 0003:0001098c       $SG22484                   100ab98c     cg_newdraw.obj
 0003:00010990       $SG22486                   100ab990     cg_newdraw.obj
 0003:00010994       $SG22488                   100ab994     cg_newdraw.obj
 0003:00010998       $SG22490                   100ab998     cg_newdraw.obj
 0003:0001099c       $SG22492                   100ab99c     cg_newdraw.obj
 0003:000109b0       $SG22540                   100ab9b0     cg_newdraw.obj
 0003:000109bc       $SG22543                   100ab9bc     cg_newdraw.obj
 0003:000109c8       $SG22545                   100ab9c8     cg_newdraw.obj
 0003:000109d8       $SG22547                   100ab9d8     cg_newdraw.obj
 0003:000109e8       $SG22549                   100ab9e8     cg_newdraw.obj
 0003:00010a00       $SG22551                   100aba00     cg_newdraw.obj
 0003:00010a0c       $SG22553                   100aba0c     cg_newdraw.obj
 0003:00010a20       $SG22555                   100aba20     cg_newdraw.obj
 0003:00010a2c       $SG22557                   100aba2c     cg_newdraw.obj
 0003:00010a38       $SG22559                   100aba38     cg_newdraw.obj
 0003:00010a44       $SG22561                   100aba44     cg_newdraw.obj
 0003:00010a54       $SG22563                   100aba54     cg_newdraw.obj
 0003:00010a68       $SG22565                   100aba68     cg_newdraw.obj
 0003:00010a78       $SG22567                   100aba78     cg_newdraw.obj
 0003:00010a90       $SG22569                   100aba90     cg_newdraw.obj
 0003:00010aa4       $SG22571                   100abaa4     cg_newdraw.obj
 0003:00010ab4       $SG22573                   100abab4     cg_newdraw.obj
 0003:00010ac8       $SG22613                   100abac8     cg_newdraw.obj
 0003:00010acc       $SG22615                   100abacc     cg_newdraw.obj
 0003:00010ad0       $SG22616                   100abad0     cg_newdraw.obj
 0003:00010ad4       $SG22642                   100abad4     cg_newdraw.obj
 0003:00010ae0       $SG22644                   100abae0     cg_newdraw.obj
 0003:00010af0       $SG22647                   100abaf0     cg_newdraw.obj
 0003:00010b00       $SG22649                   100abb00     cg_newdraw.obj
 0003:00010b10       $SG22654                   100abb10     cg_newdraw.obj
 0003:00010b20       $SG22656                   100abb20     cg_newdraw.obj
 0003:00010b30       $SG22660                   100abb30     cg_newdraw.obj
 0003:00010b48       $SG22661                   100abb48     cg_newdraw.obj
 0003:00010b60       $SG22662                   100abb60     cg_newdraw.obj
 0003:00010b78       $SG22663                   100abb78     cg_newdraw.obj
 0003:00010b90       $SG22664                   100abb90     cg_newdraw.obj
 0003:00010ba8       $SG22665                   100abba8     cg_newdraw.obj
 0003:00010bc0       $SG22666                   100abbc0     cg_newdraw.obj
 0003:00010bd8       $SG22667                   100abbd8     cg_newdraw.obj
 0003:00010bf0       $SG22668                   100abbf0     cg_newdraw.obj
 0003:00010c08       $SG22669                   100abc08     cg_newdraw.obj
 0003:00010c20       $SG22670                   100abc20     cg_newdraw.obj
 0003:00010c38       $SG22671                   100abc38     cg_newdraw.obj
 0003:00010c50       $SG22672                   100abc50     cg_newdraw.obj
 0003:00010c68       $SG22701                   100abc68     cg_newdraw.obj
 0003:00010c70       $SG22708                   100abc70     cg_newdraw.obj
 0003:00010c78       $SG22710                   100abc78     cg_newdraw.obj
 0003:00010c84       $SG22712                   100abc84     cg_newdraw.obj
 0003:00010c94       $SG22715                   100abc94     cg_newdraw.obj
 0003:00010c9c       $SG22717                   100abc9c     cg_newdraw.obj
 0003:00010cac       $SG22719                   100abcac     cg_newdraw.obj
 0003:00010cb8       $SG22720                   100abcb8     cg_newdraw.obj
 0003:00010cc4       $SG22725                   100abcc4     cg_newdraw.obj
 0003:00010cd4       $SG22727                   100abcd4     cg_newdraw.obj
 0003:00010ce4       $SG22728                   100abce4     cg_newdraw.obj
 0003:00010cf8       $SG22746                   100abcf8     cg_newdraw.obj
 0003:00010d08       $SG22771                   100abd08     cg_newdraw.obj
 0003:00010d18       $SG22784                   100abd18     cg_newdraw.obj
 0003:00010d24       $SG22804                   100abd24     cg_newdraw.obj
 0003:00010d34       $SG22807                   100abd34     cg_newdraw.obj
 0003:00010d44       $SG22810                   100abd44     cg_newdraw.obj
 0003:00010d58       $SG22813                   100abd58     cg_newdraw.obj
 0003:00010d68       $SG22816                   100abd68     cg_newdraw.obj
 0003:00010d78       $SG22819                   100abd78     cg_newdraw.obj
 0003:00010d84       $SG22821                   100abd84     cg_newdraw.obj
 0003:00010d94       $SG22826                   100abd94     cg_newdraw.obj
 0003:00010da4       $SG22828                   100abda4     cg_newdraw.obj
 0003:00010db4       $SG22829                   100abdb4     cg_newdraw.obj
 0003:00010dc8       $SG22839                   100abdc8     cg_newdraw.obj
 0003:00010dd0       $SG22902                   100abdd0     cg_newdraw.obj
 0003:00010dec       $SG22903                   100abdec     cg_newdraw.obj
 0003:00010e10       $SG22907                   100abe10     cg_newdraw.obj
 0003:00010e2c       $SG22908                   100abe2c     cg_newdraw.obj
 0003:00010e48       $SG22910                   100abe48     cg_newdraw.obj
 0003:00010e60       $SG22912                   100abe60     cg_newdraw.obj
 0003:00010e78       $SG22916                   100abe78     cg_newdraw.obj
 0003:00010e94       $SG22917                   100abe94     cg_newdraw.obj
 0003:00010eb8       $SG22931                   100abeb8     cg_newdraw.obj
 0003:00010ec4       $SG22935                   100abec4     cg_newdraw.obj
 0003:00010edc       $SG22936                   100abedc     cg_newdraw.obj
 0003:00010ee8       $SG22938                   100abee8     cg_newdraw.obj
 0003:00010ef4       $SG22940                   100abef4     cg_newdraw.obj
 0003:00010f04       $SG22949                   100abf04     cg_newdraw.obj
 0003:00010f14       $SG22950                   100abf14     cg_newdraw.obj
 0003:00010f2c       $SG22951                   100abf2c     cg_newdraw.obj
 0003:00010f3c       $SG22952                   100abf3c     cg_newdraw.obj
 0003:00010f48       $SG22953                   100abf48     cg_newdraw.obj
 0003:00010f58       $SG22954                   100abf58     cg_newdraw.obj
 0003:00010f64       $SG23032                   100abf64     cg_newdraw.obj
 0003:00010f7c       $SG23045                   100abf7c     cg_newdraw.obj
 0003:00010f88       $SG23075                   100abf88     cg_newdraw.obj
 0003:00010f90       $SG23097                   100abf90     cg_newdraw.obj
 0003:00010f9c       $SG23117                   100abf9c     cg_newdraw.obj
 0003:00010fa4       $SG23119                   100abfa4     cg_newdraw.obj
 0003:00010fa8       $SG23139                   100abfa8     cg_newdraw.obj
 0003:00010fac       $SG23160                   100abfac     cg_newdraw.obj
 0003:00010fb4       $SG23162                   100abfb4     cg_newdraw.obj
 0003:00010fc0       $SG23183                   100abfc0     cg_newdraw.obj
 0003:00010fd4       $SG23186                   100abfd4     cg_newdraw.obj
 0003:00010ff0       $SG23187                   100abff0     cg_newdraw.obj
 0003:0001100c       $SG23222                   100ac00c     cg_newdraw.obj
 0003:00011014       $SG23230                   100ac014     cg_newdraw.obj
 0003:00011018       $SG23264                   100ac018     cg_newdraw.obj
 0003:00011020       $SG23288                   100ac020     cg_newdraw.obj
 0003:00011028       $SG23289                   100ac028     cg_newdraw.obj
 0003:00011030       $SG23293                   100ac030     cg_newdraw.obj
 0003:00011040       $SG23295                   100ac040     cg_newdraw.obj
 0003:00011044       $SG23296                   100ac044     cg_newdraw.obj
 0003:00011050       $SG23313                   100ac050     cg_newdraw.obj
 0003:0001105c       $SG23342                   100ac05c     cg_newdraw.obj
 0003:0001106c       $SG23373                   100ac06c     cg_newdraw.obj
 0003:00011078       $SG23397                   100ac078     cg_newdraw.obj
 0003:00011084       $SG23432                   100ac084     cg_newdraw.obj
 0003:0001108c       $SG23566                   100ac08c     cg_newdraw.obj
 0003:00011098       $SG23568                   100ac098     cg_newdraw.obj
 0003:000110a4       $SG23570                   100ac0a4     cg_newdraw.obj
 0003:000110b0       $SG23572                   100ac0b0     cg_newdraw.obj
 0003:000110bc       $SG23574                   100ac0bc     cg_newdraw.obj
 0003:000110c8       $SG23576                   100ac0c8     cg_newdraw.obj
 0003:000110d4       $SG23578                   100ac0d4     cg_newdraw.obj
 0003:000110e0       $SG23580                   100ac0e0     cg_newdraw.obj
 0003:000110f0       $SG23582                   100ac0f0     cg_newdraw.obj
 0003:00011100       $SG23584                   100ac100     cg_newdraw.obj
 0003:00011110       $SG23588                   100ac110     cg_newdraw.obj
 0003:00011120       $SG23591                   100ac120     cg_newdraw.obj
 0003:00011130       $SG23593                   100ac130     cg_newdraw.obj
 0003:00011140       $SG23634                   100ac140     cg_newdraw.obj
 0003:00011144       $SG23637                   100ac144     cg_newdraw.obj
 0003:0001114c       $SG23638                   100ac14c     cg_newdraw.obj
 0003:00011150       $SG23639                   100ac150     cg_newdraw.obj
 0003:00011154       $SG23655                   100ac154     cg_newdraw.obj
 0003:00011158       $SG23687                   100ac158     cg_newdraw.obj
 0003:00011160       $SG23766                   100ac160     cg_newdraw.obj
 0003:00011164       $SG23768                   100ac164     cg_newdraw.obj
 0003:00011168       $SG23770                   100ac168     cg_newdraw.obj
 0003:0001116c       $SG23772                   100ac16c     cg_newdraw.obj
 0003:00011170       $SG23774                   100ac170     cg_newdraw.obj
 0003:00011174       $SG23778                   100ac174     cg_newdraw.obj
 0003:0001117c       $SG23779                   100ac17c     cg_newdraw.obj
 0003:00011180       $SG23801                   100ac180     cg_newdraw.obj
 0003:00011184       $SG23803                   100ac184     cg_newdraw.obj
 0003:00011188       $SG23805                   100ac188     cg_newdraw.obj
 0003:0001118c       $SG23809                   100ac18c     cg_newdraw.obj
 0003:00011190       $SG23810                   100ac190     cg_newdraw.obj
 0003:00011198       $SG23826                   100ac198     cg_newdraw.obj
 0003:0001119c       $SG23829                   100ac19c     cg_newdraw.obj
 0003:000111a0       $SG23830                   100ac1a0     cg_newdraw.obj
 0003:000111a4       $SG23866                   100ac1a4     cg_newdraw.obj
 0003:000111ac       $SG23867                   100ac1ac     cg_newdraw.obj
 0003:000111b0       $SG23869                   100ac1b0     cg_newdraw.obj
 0003:000111b4       $SG23871                   100ac1b4     cg_newdraw.obj
 0003:000111b8       $SG23873                   100ac1b8     cg_newdraw.obj
 0003:000111bc       $SG23875                   100ac1bc     cg_newdraw.obj
 0003:000111c0       $SG23877                   100ac1c0     cg_newdraw.obj
 0003:000111c4       $SG23879                   100ac1c4     cg_newdraw.obj
 0003:000111c8       $SG23881                   100ac1c8     cg_newdraw.obj
 0003:000111d0       $SG23887                   100ac1d0     cg_newdraw.obj
 0003:000111d4       $SG23888                   100ac1d4     cg_newdraw.obj
 0003:000111d8       $SG23890                   100ac1d8     cg_newdraw.obj
 0003:000111dc       $SG23892                   100ac1dc     cg_newdraw.obj
 0003:000111e0       $SG23894                   100ac1e0     cg_newdraw.obj
 0003:000111e4       $SG23914                   100ac1e4     cg_newdraw.obj
 0003:000111e8       $SG23930                   100ac1e8     cg_newdraw.obj
 0003:000111ec       $SG23946                   100ac1ec     cg_newdraw.obj
 0003:000111f0       $SG23964                   100ac1f0     cg_newdraw.obj
 0003:000111f4       $SG24129                   100ac1f4     cg_newdraw.obj
 0003:00011208       $SG24131                   100ac208     cg_newdraw.obj
 0003:00011218       $SG24132                   100ac218     cg_newdraw.obj
 0003:00011248       $SG24135                   100ac248     cg_newdraw.obj
 0003:00011258       $SG24137                   100ac258     cg_newdraw.obj
 0003:0001127c       $SG24138                   100ac27c     cg_newdraw.obj
 0003:00011290       $SG24166                   100ac290     cg_newdraw.obj
 0003:00011294       $SG24224                   100ac294     cg_newdraw.obj
 0003:000112a4       $SG24336                   100ac2a4     cg_newdraw.obj
 0003:000112ac       $SG24354                   100ac2ac     cg_newdraw.obj
 0003:000112b4       $SG24371                   100ac2b4     cg_newdraw.obj
 0003:000112c4       $SG24372                   100ac2c4     cg_newdraw.obj
 0003:000112d0       $SG24403                   100ac2d0     cg_newdraw.obj
 0003:000112d4       $SG24432                   100ac2d4     cg_newdraw.obj
 0003:000112e0       $SG24433                   100ac2e0     cg_newdraw.obj
 0003:000112e8       $SG24434                   100ac2e8     cg_newdraw.obj
 0003:00011304       $SG24436                   100ac304     cg_newdraw.obj
 0003:00011310       $SG24437                   100ac310     cg_newdraw.obj
 0003:00011318       $SG24438                   100ac318     cg_newdraw.obj
 0003:00011334       $SG24440                   100ac334     cg_newdraw.obj
 0003:00011340       $SG24441                   100ac340     cg_newdraw.obj
 0003:00011348       $SG24442                   100ac348     cg_newdraw.obj
 0003:00011364       $SG24444                   100ac364     cg_newdraw.obj
 0003:00011370       $SG24445                   100ac370     cg_newdraw.obj
 0003:0001137c       $SG24446                   100ac37c     cg_newdraw.obj
 0003:00011398       $SG24448                   100ac398     cg_newdraw.obj
 0003:000113a0       $SG24449                   100ac3a0     cg_newdraw.obj
 0003:000113a8       $SG24451                   100ac3a8     cg_newdraw.obj
 0003:000113b4       $SG24452                   100ac3b4     cg_newdraw.obj
 0003:000113c0       $SG24454                   100ac3c0     cg_newdraw.obj
 0003:000113d0       $SG24455                   100ac3d0     cg_newdraw.obj
 0003:000113e4       $SG24458                   100ac3e4     cg_newdraw.obj
 0003:000113f8       $SG24461                   100ac3f8     cg_newdraw.obj
 0003:00011408       $SG24462                   100ac408     cg_newdraw.obj
 0003:0001141c       $SG24464                   100ac41c     cg_newdraw.obj
 0003:00011430       $SG24472                   100ac430     cg_newdraw.obj
 0003:00011448       $SG24473                   100ac448     cg_newdraw.obj
 0003:0001144c       $SG24474                   100ac44c     cg_newdraw.obj
 0003:00011460       $SG24475                   100ac460     cg_newdraw.obj
 0003:0001146c       $SG24476                   100ac46c     cg_newdraw.obj
 0003:00011484       $SG24521                   100ac484     cg_newdraw.obj
 0003:00011488       $SG24566                   100ac488     cg_newdraw.obj
 0003:0001148c       $SG24609                   100ac48c     cg_newdraw.obj
 0003:00011490       $SG24630                   100ac490     cg_newdraw.obj
 0003:00011494       $SG24692                   100ac494     cg_newdraw.obj
 0003:0001149c       $SG24708                   100ac49c     cg_newdraw.obj
 0003:000114a4       $SG24734                   100ac4a4     cg_newdraw.obj
 0003:000114a8       $SG24758                   100ac4a8     cg_newdraw.obj
 0003:000114b0       $SG24856                   100ac4b0     cg_newdraw.obj
 0003:000114b4       $SG24900                   100ac4b4     cg_newdraw.obj
 0003:000114b8       $SG24901                   100ac4b8     cg_newdraw.obj
 0003:000114bc       $SG25050                   100ac4bc     cg_newdraw.obj
 0003:000114c0       $SG25082                   100ac4c0     cg_newdraw.obj
 0003:000114c8       $SG25084                   100ac4c8     cg_newdraw.obj
 0003:000114d0       $SG25086                   100ac4d0     cg_newdraw.obj
 0003:000114d8       $SG25088                   100ac4d8     cg_newdraw.obj
 0003:000114dc       $SG25114                   100ac4dc     cg_newdraw.obj
 0003:000114f0       $SG25117                   100ac4f0     cg_newdraw.obj
 0003:00011500       $SG25120                   100ac500     cg_newdraw.obj
 0003:00011510       $SG25123                   100ac510     cg_newdraw.obj
 0003:00011520       $SG25126                   100ac520     cg_newdraw.obj
 0003:00011530       $SG25127                   100ac530     cg_newdraw.obj
 0003:00011540       $SG25130                   100ac540     cg_newdraw.obj
 0003:0001154c       $SG25132                   100ac54c     cg_newdraw.obj
 0003:00011558       $SG25134                   100ac558     cg_newdraw.obj
 0003:00011570       $SG25136                   100ac570     cg_newdraw.obj
 0003:00011588       $SG25140                   100ac588     cg_newdraw.obj
 0003:00011598       $SG25246                   100ac598     cg_newdraw.obj
 0003:0001159c       $SG25297                   100ac59c     cg_newdraw.obj
 0003:000115a8       $SG25418                   100ac5a8     cg_newdraw.obj
 0003:000115b4       $SG25421                   100ac5b4     cg_newdraw.obj
 0003:000115b8       $SG25422                   100ac5b8     cg_newdraw.obj
 0003:000115cc       $SG25457                   100ac5cc     cg_newdraw.obj
 0003:000115dc       $SG25485                   100ac5dc     cg_newdraw.obj
 0003:000115e0       $SG25499                   100ac5e0     cg_newdraw.obj
 0003:000115e4       $SG25513                   100ac5e4     cg_newdraw.obj
 0003:000115e8       $SG25529                   100ac5e8     cg_newdraw.obj
 0003:000115ec       $SG25531                   100ac5ec     cg_newdraw.obj
 0003:000115f0       $SG25532                   100ac5f0     cg_newdraw.obj
 0003:000115f4       $SG25558                   100ac5f4     cg_newdraw.obj
 0003:000115f8       $SG25562                   100ac5f8     cg_newdraw.obj
 0003:000115fc       $SG25582                   100ac5fc     cg_newdraw.obj
 0003:00011604       $SG25583                   100ac604     cg_newdraw.obj
 0003:0001160c       $SG25588                   100ac60c     cg_newdraw.obj
 0003:00011614       $SG25589                   100ac614     cg_newdraw.obj
 0003:00011618       $SG25614                   100ac618     cg_newdraw.obj
 0003:00011620       $SG25615                   100ac620     cg_newdraw.obj
 0003:00011628       $SG25624                   100ac628     cg_newdraw.obj
 0003:00011630       $SG25625                   100ac630     cg_newdraw.obj
 0003:00011638       $SG25636                   100ac638     cg_newdraw.obj
 0003:0001164c       $SG25639                   100ac64c     cg_newdraw.obj
 0003:00011664       $SG25641                   100ac664     cg_newdraw.obj
 0003:00011688       $SG25642                   100ac688     cg_newdraw.obj
 0003:000116ac       $SG25659                   100ac6ac     cg_newdraw.obj
 0003:000116bc       $SG25661                   100ac6bc     cg_newdraw.obj
 0003:000116c4       $SG25663                   100ac6c4     cg_newdraw.obj
 0003:000116cc       $SG25665                   100ac6cc     cg_newdraw.obj
 0003:000116dc       $SG25667                   100ac6dc     cg_newdraw.obj
 0003:000116e8       $SG25669                   100ac6e8     cg_newdraw.obj
 0003:000116fc       $SG25671                   100ac6fc     cg_newdraw.obj
 0003:0001170c       $SG25673                   100ac70c     cg_newdraw.obj
 0003:00011718       $SG25675                   100ac718     cg_newdraw.obj
 0003:00011724       $SG25677                   100ac724     cg_newdraw.obj
 0003:00011730       $SG25679                   100ac730     cg_newdraw.obj
 0003:0001173c       $SG25681                   100ac73c     cg_newdraw.obj
 0003:00011750       $SG25683                   100ac750     cg_newdraw.obj
 0003:0001175c       $SG25685                   100ac75c     cg_newdraw.obj
 0003:00011770       $SG25792                   100ac770     cg_newdraw.obj
 0003:00011778       $SG25881                   100ac778     cg_newdraw.obj
 0003:00011780       $SG25883                   100ac780     cg_newdraw.obj
 0003:00011784       $SG25885                   100ac784     cg_newdraw.obj
 0003:00011788       $SG26166                   100ac788     cg_newdraw.obj
 0003:00011798       $SG26201                   100ac798     cg_newdraw.obj
 0003:000117a4       $SG26202                   100ac7a4     cg_newdraw.obj
 0003:000117ac       $SG26212                   100ac7ac     cg_newdraw.obj
 0003:000117b8       $SG26240                   100ac7b8     cg_newdraw.obj
 0003:000117c4       $SG26241                   100ac7c4     cg_newdraw.obj
 0003:000117d0       $SG26242                   100ac7d0     cg_newdraw.obj
 0003:000117e0       $SG26244                   100ac7e0     cg_newdraw.obj
 0003:000117e8       $SG26245                   100ac7e8     cg_newdraw.obj
 0003:000117f0       $SG26247                   100ac7f0     cg_newdraw.obj
 0003:000117f8       $SG26264                   100ac7f8     cg_newdraw.obj
 0003:00011808       $SG26265                   100ac808     cg_newdraw.obj
 0003:0001180c       $SG26266                   100ac80c     cg_newdraw.obj
 0003:0001181c       $SG26267                   100ac81c     cg_newdraw.obj
 0003:00011830       $SG26269                   100ac830     cg_newdraw.obj
 0003:0001183c       $SG26270                   100ac83c     cg_newdraw.obj
 0003:00011840       $SG26271                   100ac840     cg_newdraw.obj
 0003:00011850       $SG26272                   100ac850     cg_newdraw.obj
 0003:00011864       $SG26274                   100ac864     cg_newdraw.obj
 0003:00011878       $SG26275                   100ac878     cg_newdraw.obj
 0003:00011888       $SG26276                   100ac888     cg_newdraw.obj
 0003:0001188c       $SG26277                   100ac88c     cg_newdraw.obj
 0003:00011890       $SG26278                   100ac890     cg_newdraw.obj
 0003:000118a0       $SG26279                   100ac8a0     cg_newdraw.obj
 0003:000118b4       $SG20957                   100ac8b4     cg_marks.obj
 0003:000118d0       $SG21021                   100ac8d0     cg_marks.obj
 0003:000118f8       $SG20986                   100ac8f8     cg_particles.obj
 0003:00011908       _shaderAnimNames           100ac908     cg_particles.obj
 0003:00011988       _cl_numparticles           100ac988     cg_particles.obj
 0003:0001198c       $SG21020                   100ac98c     cg_particles.obj
 0003:00011994       $SG21244                   100ac994     cg_particles.obj
 0003:000119b8       $SG21273                   100ac9b8     cg_particles.obj
 0003:000119dc       $SG21324                   100ac9dc     cg_particles.obj
 0003:00011a10       $SG21321                   100aca10     cg_particles.obj
 0003:00011ad8       $SG20936                   100acad8     cg_players.obj
 0003:00011ae4       $SG20937                   100acae4     cg_players.obj
 0003:00011af0       $SG20938                   100acaf0     cg_players.obj
 0003:00011afc       $SG20939                   100acafc     cg_players.obj
 0003:00011b08       $SG20940                   100acb08     cg_players.obj
 0003:00011b18       $SG20941                   100acb18     cg_players.obj
 0003:00011b28       $SG20942                   100acb28     cg_players.obj
 0003:00011b38       $SG20943                   100acb38     cg_players.obj
 0003:00011b48       $SG20944                   100acb48     cg_players.obj
 0003:00011b58       $SG20945                   100acb58     cg_players.obj
 0003:00011b64       $SG20946                   100acb64     cg_players.obj
 0003:00011b70       $SG20947                   100acb70     cg_players.obj
 0003:00011b7c       $SG20948                   100acb7c     cg_players.obj
 0003:00011b88       $SG20968                   100acb88     cg_players.obj
 0003:00011bac       $SG20970                   100acbac     cg_players.obj
 0003:00011bc8       $SG21000                   100acbc8     cg_players.obj
 0003:00011bdc       $SG21004                   100acbdc     cg_players.obj
 0003:00011be8       $SG21009                   100acbe8     cg_players.obj
 0003:00011bf0       $SG21010                   100acbf0     cg_players.obj
 0003:00011bf8       $SG21013                   100acbf8     cg_players.obj
 0003:00011c00       $SG21016                   100acc00     cg_players.obj
 0003:00011c08       $SG21019                   100acc08     cg_players.obj
 0003:00011c10       $SG21022                   100acc10     cg_players.obj
 0003:00011c18       $SG21023                   100acc18     cg_players.obj
 0003:00011c38       $SG21026                   100acc38     cg_players.obj
 0003:00011c44       $SG21030                   100acc44     cg_players.obj
 0003:00011c48       $SG21040                   100acc48     cg_players.obj
 0003:00011c54       $SG21042                   100acc54     cg_players.obj
 0003:00011c60       $SG21044                   100acc60     cg_players.obj
 0003:00011c7c       $SG21055                   100acc7c     cg_players.obj
 0003:00011ca0       $SG21093                   100acca0     cg_players.obj
 0003:00011ca8       $SG21095                   100acca8     cg_players.obj
 0003:00011cac       $SG21096                   100accac     cg_players.obj
 0003:00011cb4       $SG21100                   100accb4     cg_players.obj
 0003:00011cd8       $SG21101                   100accd8     cg_players.obj
 0003:00011cf8       $SG21107                   100accf8     cg_players.obj
 0003:00011d18       $SG21108                   100acd18     cg_players.obj
 0003:00011d38       $SG21111                   100acd38     cg_players.obj
 0003:00011d58       $SG21112                   100acd58     cg_players.obj
 0003:00011d78       $SG21117                   100acd78     cg_players.obj
 0003:00011d84       $SG21149                   100acd84     cg_players.obj
 0003:00011d8c       $SG21151                   100acd8c     cg_players.obj
 0003:00011d90       $SG21152                   100acd90     cg_players.obj
 0003:00011d98       $SG21157                   100acd98     cg_players.obj
 0003:00011dbc       $SG21158                   100acdbc     cg_players.obj
 0003:00011ddc       $SG21164                   100acddc     cg_players.obj
 0003:00011dfc       $SG21165                   100acdfc     cg_players.obj
 0003:00011e1c       $SG21168                   100ace1c     cg_players.obj
 0003:00011e3c       $SG21169                   100ace3c     cg_players.obj
 0003:00011e5c       $SG21174                   100ace5c     cg_players.obj
 0003:00011e64       $SG21191                   100ace64     cg_players.obj
 0003:00011e6c       $SG21192                   100ace6c     cg_players.obj
 0003:00011e74       $SG21194                   100ace74     cg_players.obj
 0003:00011e94       $SG21196                   100ace94     cg_players.obj
 0003:00011e9c       $SG21197                   100ace9c     cg_players.obj
 0003:00011ea4       $SG21199                   100acea4     cg_players.obj
 0003:00011ec4       $SG21201                   100acec4     cg_players.obj
 0003:00011ecc       $SG21202                   100acecc     cg_players.obj
 0003:00011ed4       $SG21204                   100aced4     cg_players.obj
 0003:00011ef4       $SG21230                   100acef4     cg_players.obj
 0003:00011f10       $SG21232                   100acf10     cg_players.obj
 0003:00011f38       $SG21234                   100acf38     cg_players.obj
 0003:00011f60       $SG21235                   100acf60     cg_players.obj
 0003:00011f7c       $SG21237                   100acf7c     cg_players.obj
 0003:00011fa4       $SG21239                   100acfa4     cg_players.obj
 0003:00011fcc       $SG21242                   100acfcc     cg_players.obj
 0003:00011fe8       $SG21243                   100acfe8     cg_players.obj
 0003:00012004       $SG21245                   100ad004     cg_players.obj
 0003:00012024       $SG21247                   100ad024     cg_players.obj
 0003:0001204c       $SG21251                   100ad04c     cg_players.obj
 0003:00012074       $SG21254                   100ad074     cg_players.obj
 0003:0001207c       $SG21255                   100ad07c     cg_players.obj
 0003:00012080       $SG21256                   100ad080     cg_players.obj
 0003:00012088       $SG21257                   100ad088     cg_players.obj
 0003:0001208c       $SG21259                   100ad08c     cg_players.obj
 0003:000120b4       $SG21260                   100ad0b4     cg_players.obj
 0003:000120dc       $SG21261                   100ad0dc     cg_players.obj
 0003:000120fc       $SG21263                   100ad0fc     cg_players.obj
 0003:00012128       $SG21265                   100ad128     cg_players.obj
 0003:0001214c       $SG21268                   100ad14c     cg_players.obj
 0003:00012154       $SG21269                   100ad154     cg_players.obj
 0003:0001215c       $SG21272                   100ad15c     cg_players.obj
 0003:00012160       $SG21273                   100ad160     cg_players.obj
 0003:00012168       $SG21275                   100ad168     cg_players.obj
 0003:0001216c       $SG21276                   100ad16c     cg_players.obj
 0003:00012174       $SG21278                   100ad174     cg_players.obj
 0003:00012194       $SG21281                   100ad194     cg_players.obj
 0003:000121a0       $SG21291                   100ad1a0     cg_players.obj
 0003:000121a8       $SG21295                   100ad1a8     cg_players.obj
 0003:000121b4       $SG21297                   100ad1b4     cg_players.obj
 0003:000121c0       $SG21316                   100ad1c0     cg_players.obj
 0003:000121c4       $SG21318                   100ad1c4     cg_players.obj
 0003:000121cc       $SG21319                   100ad1cc     cg_players.obj
 0003:000121d4       $SG21332                   100ad1d4     cg_players.obj
 0003:000121dc       $SG21334                   100ad1dc     cg_players.obj
 0003:000121e4       $SG21337                   100ad1e4     cg_players.obj
 0003:000121f0       $SG21339                   100ad1f0     cg_players.obj
 0003:000121fc       $SG21341                   100ad1fc     cg_players.obj
 0003:00012204       $SG21354                   100ad204     cg_players.obj
 0003:0001220c       $SG21356                   100ad20c     cg_players.obj
 0003:00012214       $SG21359                   100ad214     cg_players.obj
 0003:00012220       $SG21361                   100ad220     cg_players.obj
 0003:0001222c       $SG21363                   100ad22c     cg_players.obj
 0003:00012234       $SG21386                   100ad234     cg_players.obj
 0003:00012238       $SG21389                   100ad238     cg_players.obj
 0003:00012270       $SG21394                   100ad270     cg_players.obj
 0003:00012278       $SG21395                   100ad278     cg_players.obj
 0003:00012280       $SG21397                   100ad280     cg_players.obj
 0003:00012288       $SG21398                   100ad288     cg_players.obj
 0003:00012290       $SG21399                   100ad290     cg_players.obj
 0003:00012298       $SG21400                   100ad298     cg_players.obj
 0003:000122d0       $SG21402                   100ad2d0     cg_players.obj
 0003:000122d8       $SG21403                   100ad2d8     cg_players.obj
 0003:000122e0       $SG21404                   100ad2e0     cg_players.obj
 0003:000122e8       $SG21405                   100ad2e8     cg_players.obj
 0003:000122f0       $SG21406                   100ad2f0     cg_players.obj
 0003:000122f8       $SG21407                   100ad2f8     cg_players.obj
 0003:00012320       $SG21408                   100ad320     cg_players.obj
 0003:00012328       $SG21409                   100ad328     cg_players.obj
 0003:00012330       $SG21412                   100ad330     cg_players.obj
 0003:00012344       $SG21414                   100ad344     cg_players.obj
 0003:00012358       $SG21460                   100ad358     cg_players.obj
 0003:00012388       $SG21542                   100ad388     cg_players.obj
 0003:00012390       $SG21560                   100ad390     cg_players.obj
 0003:00012398       $SG21579                   100ad398     cg_players.obj
 0003:000123a0       $SG21654                   100ad3a0     cg_players.obj
 0003:000123b8       $SG21730                   100ad3b8     cg_players.obj
 0003:000123c0       $SG21772                   100ad3c0     cg_players.obj
 0003:000123c4       $SG21773                   100ad3c4     cg_players.obj
 0003:000123c8       $SG21774                   100ad3c8     cg_players.obj
 0003:000123cc       $SG21775                   100ad3cc     cg_players.obj
 0003:000123d4       $SG21776                   100ad3d4     cg_players.obj
 0003:000123d8       $SG21777                   100ad3d8     cg_players.obj
 0003:000123dc       $SG21778                   100ad3dc     cg_players.obj
 0003:000123e0       $SG21779                   100ad3e0     cg_players.obj
 0003:000123e4       $SG21780                   100ad3e4     cg_players.obj
 0003:000123e8       $SG21781                   100ad3e8     cg_players.obj
 0003:000123ec       $SG21782                   100ad3ec     cg_players.obj
 0003:000123f0       $SG21783                   100ad3f0     cg_players.obj
 0003:000123f4       $SG21784                   100ad3f4     cg_players.obj
 0003:00012400       $SG21785                   100ad400     cg_players.obj
 0003:0001240c       $SG21786                   100ad40c     cg_players.obj
 0003:00012414       $SG21787                   100ad414     cg_players.obj
 0003:0001241c       $SG21792                   100ad41c     cg_players.obj
 0003:00012424       $SG21794                   100ad424     cg_players.obj
 0003:0001242c       $SG21795                   100ad42c     cg_players.obj
 0003:00012434       $SG21800                   100ad434     cg_players.obj
 0003:0001243c       $SG21802                   100ad43c     cg_players.obj
 0003:00012448       $SG21809                   100ad448     cg_players.obj
 0003:00012470       $SG21822                   100ad470     cg_players.obj
 0003:00012498       $SG21834                   100ad498     cg_players.obj
 0003:000124b4       $SG21836                   100ad4b4     cg_players.obj
 0003:000124c0       $SG21868                   100ad4c0     cg_players.obj
 0003:000124d8       ?movementOffsets@?1??CG_PlayerAngles@@9@9 100ad4d8     cg_players.obj
 0003:000124f8       $SG21979                   100ad4f8     cg_players.obj
 0003:00012514       $SG22055                   100ad514     cg_players.obj
 0003:00012520       $SG22071                   100ad520     cg_players.obj
 0003:0001252c       $SG22288                   100ad52c     cg_players.obj
 0003:0001254c       $SG22298                   100ad54c     cg_players.obj
 0003:00012558       $SG22324                   100ad558     cg_players.obj
 0003:00012564       $SG22329                   100ad564     cg_players.obj
 0003:00012588       $SG21004                   100ad588     cg_playerstate.obj
 0003:00012594       $SG21006                   100ad594     cg_playerstate.obj
 0003:000125a0       $SG21008                   100ad5a0     cg_playerstate.obj
 0003:000125a8       $SG21011                   100ad5a8     cg_playerstate.obj
 0003:000125b0       $SG21012                   100ad5b0     cg_playerstate.obj
 0003:000125c4       $SG21015                   100ad5c4     cg_playerstate.obj
 0003:000125cc       $SG21016                   100ad5cc     cg_playerstate.obj
 0003:000125dc       $SG21018                   100ad5dc     cg_playerstate.obj
 0003:000125e8       $SG21020                   100ad5e8     cg_playerstate.obj
 0003:000125f0       $SG21023                   100ad5f0     cg_playerstate.obj
 0003:000125f8       $SG21024                   100ad5f8     cg_playerstate.obj
 0003:00012604       $SG21027                   100ad604     cg_playerstate.obj
 0003:0001260c       $SG21028                   100ad60c     cg_playerstate.obj
 0003:0001261c       $SG21030                   100ad61c     cg_playerstate.obj
 0003:00012624       $SG21033                   100ad624     cg_playerstate.obj
 0003:0001262c       $SG21034                   100ad62c     cg_playerstate.obj
 0003:0001263c       $SG21035                   100ad63c     cg_playerstate.obj
 0003:0001264c       $SG21037                   100ad64c     cg_playerstate.obj
 0003:00012658       $SG21039                   100ad658     cg_playerstate.obj
 0003:0001266c       $SG21050                   100ad66c     cg_playerstate.obj
 0003:00012680       $SG21058                   100ad680     cg_playerstate.obj
 0003:0001268c       $SG21060                   100ad68c     cg_playerstate.obj
 0003:00012698       $SG21090                   100ad698     cg_playerstate.obj
 0003:000126bc       $SG21222                   100ad6bc     cg_predict.obj
 0003:000126e0       $SG21227                   100ad6e0     cg_predict.obj
 0003:000126e4       $SG21228                   100ad6e4     cg_predict.obj
 0003:000126f0       $SG21230                   100ad6f0     cg_predict.obj
 0003:000126f4       $SG21231                   100ad6f4     cg_predict.obj
 0003:00012700       $SG21239                   100ad700     cg_predict.obj
 0003:00012714       $SG21242                   100ad714     cg_predict.obj
 0003:00012728       $SG21245                   100ad728     cg_predict.obj
 0003:0001274c       $SG21250                   100ad74c     cg_predict.obj
 0003:0001276c       $SG21253                   100ad76c     cg_predict.obj
 0003:00012778       $SG21256                   100ad778     cg_predict.obj
 0003:00012784       $SG21259                   100ad784     cg_predict.obj
 0003:0001279c       $SG21262                   100ad79c     cg_predict.obj
 0003:000127b4       $SG20943                   100ad7b4     cg_screen.obj
 0003:000127c4       $SG20947                   100ad7c4     cg_screen.obj
 0003:000127d4       $SG20952                   100ad7d4     cg_screen.obj
 0003:000127e4       $SG21025                   100ad7e4     cg_screen.obj
 0003:000127f4       $SG21027                   100ad7f4     cg_screen.obj
 0003:00012804       $SG20951                   100ad804     cg_scoreboard.obj
 0003:00012820       $SG20952                   100ad820     cg_scoreboard.obj
 0003:00012834       $SG20953                   100ad834     cg_scoreboard.obj
 0003:00012848       $SG20954                   100ad848     cg_scoreboard.obj
 0003:00012868       $SG20955                   100ad868     cg_scoreboard.obj
 0003:00012884       $SG20956                   100ad884     cg_scoreboard.obj
 0003:000128a4       $SG20957                   100ad8a4     cg_scoreboard.obj
 0003:000128c0       $SG20958                   100ad8c0     cg_scoreboard.obj
 0003:000128dc       $SG20959                   100ad8dc     cg_scoreboard.obj
 0003:000128f8       $SG20960                   100ad8f8     cg_scoreboard.obj
 0003:00012914       $SG20961                   100ad914     cg_scoreboard.obj
 0003:00012930       $SG20962                   100ad930     cg_scoreboard.obj
 0003:00012950       $SG20963                   100ad950     cg_scoreboard.obj
 0003:0001296c       $SG20965                   100ad96c     cg_scoreboard.obj
 0003:000129a4       $SG20966                   100ad9a4     cg_scoreboard.obj
 0003:000129dc       $SG20967                   100ad9dc     cg_scoreboard.obj
 0003:00012a04       $SG20968                   100ada04     cg_scoreboard.obj
 0003:00012a28       $SG20969                   100ada28     cg_scoreboard.obj
 0003:00012a44       $SG20972                   100ada44     cg_scoreboard.obj
 0003:00012a50       $SG20973                   100ada50     cg_scoreboard.obj
 0003:00012a88       $SG20974                   100ada88     cg_scoreboard.obj
 0003:00012a94       $SG20975                   100ada94     cg_scoreboard.obj
 0003:00012acc       $SG21064                   100adacc     cg_scoreboard.obj
 0003:00012ad8       $SG21069                   100adad8     cg_scoreboard.obj
 0003:00012af0       $SG21072                   100adaf0     cg_scoreboard.obj
 0003:00012b04       $SG21073                   100adb04     cg_scoreboard.obj
 0003:00012b18       $SG21075                   100adb18     cg_scoreboard.obj
 0003:00012b2c       $SG21084                   100adb2c     cg_scoreboard.obj
 0003:00012b3c       $SG21085                   100adb3c     cg_scoreboard.obj
 0003:00012b48       $SG21087                   100adb48     cg_scoreboard.obj
 0003:00012b54       $SG21089                   100adb54     cg_scoreboard.obj
 0003:00012b5c       $SG21091                   100adb5c     cg_scoreboard.obj
 0003:00012b70       $SG21129                   100adb70     cg_scoreboard.obj
 0003:00012b78       $SG21136                   100adb78     cg_scoreboard.obj
 0003:00012b84       $SG21138                   100adb84     cg_scoreboard.obj
 0003:00012b90       $SG21140                   100adb90     cg_scoreboard.obj
 0003:00012b9c       $SG21142                   100adb9c     cg_scoreboard.obj
 0003:00012ba0       $SG21149                   100adba0     cg_scoreboard.obj
 0003:00012bb0       $SG21151                   100adbb0     cg_scoreboard.obj
 0003:00012bc0       $SG21153                   100adbc0     cg_scoreboard.obj
 0003:00012bd0       $SG21167                   100adbd0     cg_scoreboard.obj
 0003:00012bfc       $SG21233                   100adbfc     cg_scoreboard.obj
 0003:00012c10       $SG21235                   100adc10     cg_scoreboard.obj
 0003:00012c30       $SG21238                   100adc30     cg_scoreboard.obj
 0003:00012c48       $SG21239                   100adc48     cg_scoreboard.obj
 0003:00012c5c       $SG21243                   100adc5c     cg_scoreboard.obj
 0003:00012c70       $SG21244                   100adc70     cg_scoreboard.obj
 0003:00012c84       $SG21247                   100adc84     cg_scoreboard.obj
 0003:00012c94       $SG21248                   100adc94     cg_scoreboard.obj
 0003:00012cac       $SG21252                   100adcac     cg_scoreboard.obj
 0003:00012cb4       $SG21253                   100adcb4     cg_scoreboard.obj
 0003:00012cbc       $SG21255                   100adcbc     cg_scoreboard.obj
 0003:00012cf4       $SG21256                   100adcf4     cg_scoreboard.obj
 0003:00012d08       $SG21270                   100add08     cg_scoreboard.obj
 0003:00012d10       $SG21322                   100add10     cg_scoreboard.obj
 0003:00012d28       $SG21341                   100add28     cg_scoreboard.obj
 0003:00012d2c       $SG21345                   100add2c     cg_scoreboard.obj
 0003:00012d34       $SG21360                   100add34     cg_scoreboard.obj
 0003:00012d48       $SG21361                   100add48     cg_scoreboard.obj
 0003:00012d58       $SG21366                   100add58     cg_scoreboard.obj
 0003:00012d6c       $SG21367                   100add6c     cg_scoreboard.obj
 0003:00012d7c       $SG21370                   100add7c     cg_scoreboard.obj
 0003:00012d8c       $SG21371                   100add8c     cg_scoreboard.obj
 0003:00012d98       $SG21383                   100add98     cg_scoreboard.obj
 0003:00012da0       $SG21442                   100adda0     cg_scoreboard.obj
 0003:00012db0       $SG21446                   100addb0     cg_scoreboard.obj
 0003:00012dc4       $SG21449                   100addc4     cg_scoreboard.obj
 0003:00012ddc       $SG21452                   100adddc     cg_scoreboard.obj
 0003:00012df0       $SG21453                   100addf0     cg_scoreboard.obj
 0003:00012e04       $SG21493                   100ade04     cg_scoreboard.obj
 0003:00012e0c       $SG21495                   100ade0c     cg_scoreboard.obj
 0003:00012e18       $SG21496                   100ade18     cg_scoreboard.obj
 0003:00012e20       $SG21499                   100ade20     cg_scoreboard.obj
 0003:00012e2c       $SG21500                   100ade2c     cg_scoreboard.obj
 0003:00012e30       $SG21501                   100ade30     cg_scoreboard.obj
 0003:00012e3c       $SG21502                   100ade3c     cg_scoreboard.obj
 0003:00012e40       $SG21505                   100ade40     cg_scoreboard.obj
 0003:00012e48       $SG20980                   100ade48     cg_servercmds.obj
 0003:00012e50       $SG20981                   100ade50     cg_servercmds.obj
 0003:00012e58       $SG20982                   100ade58     cg_servercmds.obj
 0003:00012e60       $SG20983                   100ade60     cg_servercmds.obj
 0003:00012e6c       $SG20984                   100ade6c     cg_servercmds.obj
 0003:00012e74       $SG20985                   100ade74     cg_servercmds.obj
 0003:00012e7c       $SG20986                   100ade7c     cg_servercmds.obj
 0003:00012e88       $SG20987                   100ade88     cg_servercmds.obj
 0003:00012e94       $SG20988                   100ade94     cg_servercmds.obj
 0003:00012ea8       $SG21012                   100adea8     cg_servercmds.obj
 0003:00012eac       $SG21013                   100adeac     cg_servercmds.obj
 0003:00012eb0       $SG21014                   100adeb0     cg_servercmds.obj
 0003:00012eb4       $SG21015                   100adeb4     cg_servercmds.obj
 0003:00012eb8       $SG21016                   100adeb8     cg_servercmds.obj
 0003:00012ebc       $SG21017                   100adebc     cg_servercmds.obj
 0003:00012ec0       $SG21018                   100adec0     cg_servercmds.obj
 0003:00012ec4       $SG21019                   100adec4     cg_servercmds.obj
 0003:00012ec8       $SG21020                   100adec8     cg_servercmds.obj
 0003:00012ecc       $SG21021                   100adecc     cg_servercmds.obj
 0003:00012ed0       $SG21022                   100aded0     cg_servercmds.obj
 0003:00012ed4       $SG21023                   100aded4     cg_servercmds.obj
 0003:00012ed8       $SG21024                   100aded8     cg_servercmds.obj
 0003:00012edc       $SG21025                   100adedc     cg_servercmds.obj
 0003:00012ee0       $SG21028                   100adee0     cg_servercmds.obj
 0003:00012ee8       $SG21029                   100adee8     cg_servercmds.obj
 0003:00012ef0       $SG21030                   100adef0     cg_servercmds.obj
 0003:00012ef8       $SG21031                   100adef8     cg_servercmds.obj
 0003:00012f00       $SG21032                   100adf00     cg_servercmds.obj
 0003:00012f08       $SG21033                   100adf08     cg_servercmds.obj
 0003:00012f14       $SG21034                   100adf14     cg_servercmds.obj
 0003:00012f1c       $SG21035                   100adf1c     cg_servercmds.obj
 0003:00012f2c       $SG21036                   100adf2c     cg_servercmds.obj
 0003:00012f34       $SG21037                   100adf34     cg_servercmds.obj
 0003:00012f44       $SG21038                   100adf44     cg_servercmds.obj
 0003:00012f4c       $SG21039                   100adf4c     cg_servercmds.obj
 0003:00012f58       $SG21040                   100adf58     cg_servercmds.obj
 0003:00012f60       $SG21041                   100adf60     cg_servercmds.obj
 0003:00012f6c       $SG21042                   100adf6c     cg_servercmds.obj
 0003:00012f74       $SG21043                   100adf74     cg_servercmds.obj
 0003:00012f84       $SG21044                   100adf84     cg_servercmds.obj
 0003:00012f8c       $SG21045                   100adf8c     cg_servercmds.obj
 0003:00012f9c       $SG21046                   100adf9c     cg_servercmds.obj
 0003:00012fa4       $SG21047                   100adfa4     cg_servercmds.obj
 0003:00012fb0       $SG21048                   100adfb0     cg_servercmds.obj
 0003:00012fb8       $SG21049                   100adfb8     cg_servercmds.obj
 0003:00012fc0       $SG21050                   100adfc0     cg_servercmds.obj
 0003:00012fc8       $SG21051                   100adfc8     cg_servercmds.obj
 0003:00012fd4       $SG21052                   100adfd4     cg_servercmds.obj
 0003:00012fdc       $SG21053                   100adfdc     cg_servercmds.obj
 0003:00012fe8       $SG21054                   100adfe8     cg_servercmds.obj
 0003:00012ff0       $SG21055                   100adff0     cg_servercmds.obj
 0003:00012ffc       $SG21056                   100adffc     cg_servercmds.obj
 0003:00013004       $SG21057                   100ae004     cg_servercmds.obj
 0003:00013010       $SG21058                   100ae010     cg_servercmds.obj
 0003:00013018       $SG21059                   100ae018     cg_servercmds.obj
 0003:00013020       $SG21060                   100ae020     cg_servercmds.obj
 0003:00013028       $SG21061                   100ae028     cg_servercmds.obj
 0003:00013034       $SG21062                   100ae034     cg_servercmds.obj
 0003:0001303c       $SG21063                   100ae03c     cg_servercmds.obj
 0003:00013048       $SG21064                   100ae048     cg_servercmds.obj
 0003:00013050       $SG21065                   100ae050     cg_servercmds.obj
 0003:0001305c       $SG21066                   100ae05c     cg_servercmds.obj
 0003:00013064       $SG21067                   100ae064     cg_servercmds.obj
 0003:00013070       $SG21068                   100ae070     cg_servercmds.obj
 0003:00013078       $SG21069                   100ae078     cg_servercmds.obj
 0003:00013088       $SG21070                   100ae088     cg_servercmds.obj
 0003:00013090       $SG21071                   100ae090     cg_servercmds.obj
 0003:0001309c       $SG21072                   100ae09c     cg_servercmds.obj
 0003:000130a4       $SG21073                   100ae0a4     cg_servercmds.obj
 0003:000130b4       $SG21074                   100ae0b4     cg_servercmds.obj
 0003:000130bc       $SG21075                   100ae0bc     cg_servercmds.obj
 0003:000130d0       $SG21076                   100ae0d0     cg_servercmds.obj
 0003:000130d8       $SG21077                   100ae0d8     cg_servercmds.obj
 0003:000130e4       $SG21078                   100ae0e4     cg_servercmds.obj
 0003:000130ec       $SG21079                   100ae0ec     cg_servercmds.obj
 0003:000130f8       $SG21080                   100ae0f8     cg_servercmds.obj
 0003:00013100       $SG21081                   100ae100     cg_servercmds.obj
 0003:00013110       $SG21082                   100ae110     cg_servercmds.obj
 0003:00013118       $SG21083                   100ae118     cg_servercmds.obj
 0003:00013124       $SG21084                   100ae124     cg_servercmds.obj
 0003:0001312c       $SG21085                   100ae12c     cg_servercmds.obj
 0003:0001313c       $SG21086                   100ae13c     cg_servercmds.obj
 0003:00013144       $SG21087                   100ae144     cg_servercmds.obj
 0003:00013150       $SG21088                   100ae150     cg_servercmds.obj
 0003:00013158       $SG21089                   100ae158     cg_servercmds.obj
 0003:00013168       $SG21090                   100ae168     cg_servercmds.obj
 0003:00013170       $SG21091                   100ae170     cg_servercmds.obj
 0003:00013180       $SG21092                   100ae180     cg_servercmds.obj
 0003:00013188       $SG21093                   100ae188     cg_servercmds.obj
 0003:00013198       $SG21094                   100ae198     cg_servercmds.obj
 0003:000131a0       $SG21095                   100ae1a0     cg_servercmds.obj
 0003:000131ac       $SG21096                   100ae1ac     cg_servercmds.obj
 0003:000131b4       $SG21097                   100ae1b4     cg_servercmds.obj
 0003:000131c4       $SG21098                   100ae1c4     cg_servercmds.obj
 0003:000131cc       $SG21099                   100ae1cc     cg_servercmds.obj
 0003:000131dc       $SG21100                   100ae1dc     cg_servercmds.obj
 0003:000131e4       $SG21101                   100ae1e4     cg_servercmds.obj
 0003:000131f0       $SG21102                   100ae1f0     cg_servercmds.obj
 0003:000131f8       $SG21103                   100ae1f8     cg_servercmds.obj
 0003:00013208       $SG21104                   100ae208     cg_servercmds.obj
 0003:00013210       $SG21105                   100ae210     cg_servercmds.obj
 0003:00013218       $SG21106                   100ae218     cg_servercmds.obj
 0003:00013224       $SG21107                   100ae224     cg_servercmds.obj
 0003:00013234       $SG21108                   100ae234     cg_servercmds.obj
 0003:00013240       $SG21109                   100ae240     cg_servercmds.obj
 0003:00013250       $SG21110                   100ae250     cg_servercmds.obj
 0003:0001325c       $SG21111                   100ae25c     cg_servercmds.obj
 0003:00013268       $SG21112                   100ae268     cg_servercmds.obj
 0003:00013274       $SG21113                   100ae274     cg_servercmds.obj
 0003:00013288       $SG21114                   100ae288     cg_servercmds.obj
 0003:00013294       $SG21115                   100ae294     cg_servercmds.obj
 0003:000132a4       $SG21116                   100ae2a4     cg_servercmds.obj
 0003:000132b0       $SG21117                   100ae2b0     cg_servercmds.obj
 0003:000132bc       $SG21118                   100ae2bc     cg_servercmds.obj
 0003:000132c8       $SG21119                   100ae2c8     cg_servercmds.obj
 0003:000132d8       $SG21120                   100ae2d8     cg_servercmds.obj
 0003:000132e4       $SG21121                   100ae2e4     cg_servercmds.obj
 0003:000132f0       $SG21122                   100ae2f0     cg_servercmds.obj
 0003:000132fc       $SG21123                   100ae2fc     cg_servercmds.obj
 0003:0001330c       $SG21124                   100ae30c     cg_servercmds.obj
 0003:00013318       $SG21125                   100ae318     cg_servercmds.obj
 0003:00013324       $SG21144                   100ae324     cg_servercmds.obj
 0003:00013328       $SG21145                   100ae328     cg_servercmds.obj
 0003:0001332c       $SG21146                   100ae32c     cg_servercmds.obj
 0003:00013330       $SG21147                   100ae330     cg_servercmds.obj
 0003:00013334       $SG21148                   100ae334     cg_servercmds.obj
 0003:00013338       $SG21149                   100ae338     cg_servercmds.obj
 0003:0001333c       $SG21151                   100ae33c     cg_servercmds.obj
 0003:0001335c       $SG21156                   100ae35c     cg_servercmds.obj
 0003:00013380       $SG21152                   100ae380     cg_servercmds.obj
 0003:000133c4       $SG21158                   100ae3c4     cg_servercmds.obj
 0003:000133e0       $SG21153                   100ae3e0     cg_servercmds.obj
 0003:00013428       $SG21154                   100ae428     cg_servercmds.obj
 0003:00013460       $SG21159                   100ae460     cg_servercmds.obj
 0003:00013470       $SG21160                   100ae470     cg_servercmds.obj
 0003:0001349c       $SG21161                   100ae49c     cg_servercmds.obj
 0003:000134d8       $SG21162                   100ae4d8     cg_servercmds.obj
 0003:00013524       $SG21163                   100ae524     cg_servercmds.obj
 0003:00013528       $SG21164                   100ae528     cg_servercmds.obj
 0003:00013544       $SG21165                   100ae544     cg_servercmds.obj
 0003:0001355c       $SG21166                   100ae55c     cg_servercmds.obj
 0003:00013598       $SG21167                   100ae598     cg_servercmds.obj
 0003:000135d8       $SG21168                   100ae5d8     cg_servercmds.obj
 0003:000135e8       $SG21169                   100ae5e8     cg_servercmds.obj
 0003:000135ec       $SG21170                   100ae5ec     cg_servercmds.obj
 0003:00013600       $SG21171                   100ae600     cg_servercmds.obj
 0003:00013614       $SG21172                   100ae614     cg_servercmds.obj
 0003:00013650       $SG21173                   100ae650     cg_servercmds.obj
 0003:00013694       $SG21175                   100ae694     cg_servercmds.obj
 0003:00013698       $SG21174                   100ae698     cg_servercmds.obj
 0003:000136d8       $SG21176                   100ae6d8     cg_servercmds.obj
 0003:000136f8       $SG21177                   100ae6f8     cg_servercmds.obj
 0003:00013718       $SG21178                   100ae718     cg_servercmds.obj
 0003:00013754       $SG21180                   100ae754     cg_servercmds.obj
 0003:00013758       $SG21179                   100ae758     cg_servercmds.obj
 0003:000137a4       $SG21181                   100ae7a4     cg_servercmds.obj
 0003:000137a8       $SG21182                   100ae7a8     cg_servercmds.obj
 0003:000137c4       $SG21183                   100ae7c4     cg_servercmds.obj
 0003:000137e4       $SG21184                   100ae7e4     cg_servercmds.obj
 0003:00013818       $SG21185                   100ae818     cg_servercmds.obj
 0003:00013854       $SG21186                   100ae854     cg_servercmds.obj
 0003:00013884       $SG21187                   100ae884     cg_servercmds.obj
 0003:00013888       $SG21188                   100ae888     cg_servercmds.obj
 0003:000138a8       $SG21189                   100ae8a8     cg_servercmds.obj
 0003:000138e8       $SG21190                   100ae8e8     cg_servercmds.obj
 0003:00013914       $SG21191                   100ae914     cg_servercmds.obj
 0003:00013948       $SG21192                   100ae948     cg_servercmds.obj
 0003:00013994       $SG21193                   100ae994     cg_servercmds.obj
 0003:00013998       $SG21194                   100ae998     cg_servercmds.obj
 0003:000139b0       $SG21195                   100ae9b0     cg_servercmds.obj
 0003:000139fc       $SG21196                   100ae9fc     cg_servercmds.obj
 0003:00013a28       $SG21197                   100aea28     cg_servercmds.obj
 0003:00013a5c       $SG21199                   100aea5c     cg_servercmds.obj
 0003:00013a60       $SG21198                   100aea60     cg_servercmds.obj
 0003:00013aac       $SG21200                   100aeaac     cg_servercmds.obj
 0003:00013ac8       $SG21201                   100aeac8     cg_servercmds.obj
 0003:00013ae4       $SG21202                   100aeae4     cg_servercmds.obj
 0003:00013b1c       $SG21203                   100aeb1c     cg_servercmds.obj
 0003:00013b4c       $SG21204                   100aeb4c     cg_servercmds.obj
 0003:00013b78       $SG21205                   100aeb78     cg_servercmds.obj
 0003:00013b7c       $SG21206                   100aeb7c     cg_servercmds.obj
 0003:00013b98       $SG21207                   100aeb98     cg_servercmds.obj
 0003:00013bdc       $SG21208                   100aebdc     cg_servercmds.obj
 0003:00013bf4       $SG21209                   100aebf4     cg_servercmds.obj
 0003:00013c20       $SG21210                   100aec20     cg_servercmds.obj
 0003:00013c4c       $SG21211                   100aec4c     cg_servercmds.obj
 0003:00013c50       $SG21212                   100aec50     cg_servercmds.obj
 0003:00013c6c       $SG21213                   100aec6c     cg_servercmds.obj
 0003:00013c90       $SG21214                   100aec90     cg_servercmds.obj
 0003:00013cb8       $SG21215                   100aecb8     cg_servercmds.obj
 0003:00013cf0       $SG21216                   100aecf0     cg_servercmds.obj
 0003:00013d28       $SG21217                   100aed28     cg_servercmds.obj
 0003:00013d2c       $SG21218                   100aed2c     cg_servercmds.obj
 0003:00013d48       $SG21219                   100aed48     cg_servercmds.obj
 0003:00013d80       $SG21220                   100aed80     cg_servercmds.obj
 0003:00013db0       $SG21221                   100aedb0     cg_servercmds.obj
 0003:00013dec       $SG21222                   100aedec     cg_servercmds.obj
 0003:00013e18       $SG21223                   100aee18     cg_servercmds.obj
 0003:00013e1c       $SG21224                   100aee1c     cg_servercmds.obj
 0003:00013e40       $SG21225                   100aee40     cg_servercmds.obj
 0003:00013e78       $SG21226                   100aee78     cg_servercmds.obj
 0003:00013eac       $SG21227                   100aeeac     cg_servercmds.obj
 0003:00013ee0       $SG21228                   100aeee0     cg_servercmds.obj
 0003:00013f24       $SG21229                   100aef24     cg_servercmds.obj
 0003:00013f28       $SG21230                   100aef28     cg_servercmds.obj
 0003:00013f44       $SG21231                   100aef44     cg_servercmds.obj
 0003:00013f78       $SG21232                   100aef78     cg_servercmds.obj
 0003:00013fac       $SG21233                   100aefac     cg_servercmds.obj
 0003:00013fec       $SG21235                   100aefec     cg_servercmds.obj
 0003:00013ff0       $SG21234                   100aeff0     cg_servercmds.obj
 0003:00014038       $SG21306                   100af038     cg_servercmds.obj
 0003:00014040       $SG21308                   100af040     cg_servercmds.obj
 0003:00014048       $SG21412                   100af048     cg_servercmds.obj
 0003:00014060       $SG21416                   100af060     cg_servercmds.obj
 0003:00014074       $SG21420                   100af074     cg_servercmds.obj
 0003:00014080       $SG21424                   100af080     cg_servercmds.obj
 0003:0001408c       $SG21428                   100af08c     cg_servercmds.obj
 0003:0001409c       $SG21432                   100af09c     cg_servercmds.obj
 0003:000140a8       $SG21436                   100af0a8     cg_servercmds.obj
 0003:000140b8       $SG21440                   100af0b8     cg_servercmds.obj
 0003:000140c0       $SG21444                   100af0c0     cg_servercmds.obj
 0003:000140cc       $SG21448                   100af0cc     cg_servercmds.obj
 0003:000140d8       $SG21452                   100af0d8     cg_servercmds.obj
 0003:000140ec       $SG21456                   100af0ec     cg_servercmds.obj
 0003:00014104       $SG21460                   100af104     cg_servercmds.obj
 0003:00014110       $SG21464                   100af110     cg_servercmds.obj
 0003:00014124       $SG21468                   100af124     cg_servercmds.obj
 0003:00014134       $SG21472                   100af134     cg_servercmds.obj
 0003:00014144       $SG21476                   100af144     cg_servercmds.obj
 0003:00014154       $SG21480                   100af154     cg_servercmds.obj
 0003:00014160       $SG21484                   100af160     cg_servercmds.obj
 0003:00014174       $SG21488                   100af174     cg_servercmds.obj
 0003:00014184       $SG21492                   100af184     cg_servercmds.obj
 0003:00014194       $SG21496                   100af194     cg_servercmds.obj
 0003:000141ac       $SG21500                   100af1ac     cg_servercmds.obj
 0003:000141c8       $SG21504                   100af1c8     cg_servercmds.obj
 0003:000141e8       $SG21508                   100af1e8     cg_servercmds.obj
 0003:000141f8       $SG21512                   100af1f8     cg_servercmds.obj
 0003:00014204       $SG21516                   100af204     cg_servercmds.obj
 0003:00014214       $SG21520                   100af214     cg_servercmds.obj
 0003:00014220       $SG21524                   100af220     cg_servercmds.obj
 0003:0001422c       $SG21528                   100af22c     cg_servercmds.obj
 0003:00014240       $SG21532                   100af240     cg_servercmds.obj
 0003:0001424c       $SG21536                   100af24c     cg_servercmds.obj
 0003:00014258       $SG21540                   100af258     cg_servercmds.obj
 0003:00014264       $SG21544                   100af264     cg_servercmds.obj
 0003:00014274       $SG21548                   100af274     cg_servercmds.obj
 0003:00014284       $SG21552                   100af284     cg_servercmds.obj
 0003:00014294       $SG21556                   100af294     cg_servercmds.obj
 0003:000142a4       $SG21560                   100af2a4     cg_servercmds.obj
 0003:000142b4       $SG21564                   100af2b4     cg_servercmds.obj
 0003:000142c0       $SG21568                   100af2c0     cg_servercmds.obj
 0003:000142dc       $SG21572                   100af2dc     cg_servercmds.obj
 0003:000142f0       $SG21576                   100af2f0     cg_servercmds.obj
 0003:00014304       $SG21580                   100af304     cg_servercmds.obj
 0003:0001431c       $SG21584                   100af31c     cg_servercmds.obj
 0003:00014334       $SG21588                   100af334     cg_servercmds.obj
 0003:0001434c       $SG21592                   100af34c     cg_servercmds.obj
 0003:00014360       $SG21596                   100af360     cg_servercmds.obj
 0003:00014370       $SG21600                   100af370     cg_servercmds.obj
 0003:00014384       $SG21604                   100af384     cg_servercmds.obj
 0003:00014398       $SG21608                   100af398     cg_servercmds.obj
 0003:000143b0       $SG21665                   100af3b0     cg_servercmds.obj
 0003:000143b4       $SG21668                   100af3b4     cg_servercmds.obj
 0003:000143b8       $SG21724                   100af3b8     cg_servercmds.obj
 0003:000143bc       $SG21726                   100af3bc     cg_servercmds.obj
 0003:000143c4       $SG21746                   100af3c4     cg_servercmds.obj
 0003:000143c8       $SG21748                   100af3c8     cg_servercmds.obj
 0003:000143d0       $SG21789                   100af3d0     cg_servercmds.obj
 0003:0001440c       $SG21792                   100af40c     cg_servercmds.obj
 0003:00014440       $SG21794                   100af440     cg_servercmds.obj
 0003:00014470       $SG21795                   100af470     cg_servercmds.obj
 0003:000144e8       $SG21813                   100af4e8     cg_servercmds.obj
 0003:000144ec       $SG21814                   100af4ec     cg_servercmds.obj
 0003:000144f4       $SG21815                   100af4f4     cg_servercmds.obj
 0003:00014530       $SG21958                   100af530     cg_servercmds.obj
 0003:00014584       $SG22197                   100af584     cg_servercmds.obj
 0003:00014588       $SG22198                   100af588     cg_servercmds.obj
 0003:0001458c       $SG22199                   100af58c     cg_servercmds.obj
 0003:000145a4       $SG22207                   100af5a4     cg_servercmds.obj
 0003:000145b0       $SG22211                   100af5b0     cg_servercmds.obj
 0003:000145c0       $SG22212                   100af5c0     cg_servercmds.obj
 0003:000145d0       $SG22213                   100af5d0     cg_servercmds.obj
 0003:000145e0       $SG22214                   100af5e0     cg_servercmds.obj
 0003:000145f0       $SG22215                   100af5f0     cg_servercmds.obj
 0003:00014600       $SG22216                   100af600     cg_servercmds.obj
 0003:00014610       $SG22246                   100af610     cg_servercmds.obj
 0003:0001461c       $SG22247                   100af61c     cg_servercmds.obj
 0003:00014628       $SG22248                   100af628     cg_servercmds.obj
 0003:0001462c       $SG22249                   100af62c     cg_servercmds.obj
 0003:00014638       $SG22250                   100af638     cg_servercmds.obj
 0003:00014640       $SG22251                   100af640     cg_servercmds.obj
 0003:0001464c       $SG22252                   100af64c     cg_servercmds.obj
 0003:00014658       $SG22253                   100af658     cg_servercmds.obj
 0003:00014668       $SG22254                   100af668     cg_servercmds.obj
 0003:00014674       $SG22255                   100af674     cg_servercmds.obj
 0003:00014680       $SG22256                   100af680     cg_servercmds.obj
 0003:00014684       $SG22257                   100af684     cg_servercmds.obj
 0003:00014688       $SG22258                   100af688     cg_servercmds.obj
 0003:000146a0       $SG22259                   100af6a0     cg_servercmds.obj
 0003:000146a4       $SG22260                   100af6a4     cg_servercmds.obj
 0003:000146a8       $SG22261                   100af6a8     cg_servercmds.obj
 0003:000146c0       $SG22262                   100af6c0     cg_servercmds.obj
 0003:000146d0       $SG22263                   100af6d0     cg_servercmds.obj
 0003:000146dc       $SG22265                   100af6dc     cg_servercmds.obj
 0003:000146ec       $SG22267                   100af6ec     cg_servercmds.obj
 0003:000146f4       $SG22270                   100af6f4     cg_servercmds.obj
 0003:00014700       $SG22273                   100af700     cg_servercmds.obj
 0003:0001470c       $SG22274                   100af70c     cg_servercmds.obj
 0003:0001471c       $SG22276                   100af71c     cg_servercmds.obj
 0003:00014720       $SG22277                   100af720     cg_servercmds.obj
 0003:00014730       $SG22278                   100af730     cg_servercmds.obj
 0003:00014744       $SG22280                   100af744     cg_servercmds.obj
 0003:00014748       $SG22281                   100af748     cg_servercmds.obj
 0003:0001475c       $SG22282                   100af75c     cg_servercmds.obj
 0003:00014764       $SG22283                   100af764     cg_servercmds.obj
 0003:00014770       $SG22284                   100af770     cg_servercmds.obj
 0003:00014778       $SG22285                   100af778     cg_servercmds.obj
 0003:00014784       $SG22286                   100af784     cg_servercmds.obj
 0003:00014790       $SG22287                   100af790     cg_servercmds.obj
 0003:00014798       $SG22288                   100af798     cg_servercmds.obj
 0003:000147a4       $SG22289                   100af7a4     cg_servercmds.obj
 0003:000147b0       $SG22290                   100af7b0     cg_servercmds.obj
 0003:000147bc       $SG22293                   100af7bc     cg_servercmds.obj
 0003:000147c0       $SG22294                   100af7c0     cg_servercmds.obj
 0003:000147dc       $SG22295                   100af7dc     cg_servercmds.obj
 0003:000147e0       $SG22296                   100af7e0     cg_servercmds.obj
 0003:000147fc       $SG22307                   100af7fc     cg_servercmds.obj
 0003:00014800       $SG22308                   100af800     cg_servercmds.obj
 0003:0001480c       $SG22328                   100af80c     cg_servercmds.obj
 0003:00014824       $SG22330                   100af824     cg_servercmds.obj
 0003:00014840       $SG22332                   100af840     cg_servercmds.obj
 0003:00014858       $SG22334                   100af858     cg_servercmds.obj
 0003:0001486c       $SG22336                   100af86c     cg_servercmds.obj
 0003:00014884       $SG22338                   100af884     cg_servercmds.obj
 0003:00014898       $SG22340                   100af898     cg_servercmds.obj
 0003:000148b0       $SG22342                   100af8b0     cg_servercmds.obj
 0003:000148cc       $SG22393                   100af8cc     cg_servercmds.obj
 0003:000148d8       $SG22394                   100af8d8     cg_servercmds.obj
 0003:000148e4       $SG22395                   100af8e4     cg_servercmds.obj
 0003:000148ec       $SG22396                   100af8ec     cg_servercmds.obj
 0003:000148f8       $SG22397                   100af8f8     cg_servercmds.obj
 0003:00014900       $SG22398                   100af900     cg_servercmds.obj
 0003:00014908       $SG22399                   100af908     cg_servercmds.obj
 0003:00014910       $SG22400                   100af910     cg_servercmds.obj
 0003:00014918       $SG22401                   100af918     cg_servercmds.obj
 0003:00014920       $SG22402                   100af920     cg_servercmds.obj
 0003:00014928       $SG22433                   100af928     cg_servercmds.obj
 0003:00014930       $SG22434                   100af930     cg_servercmds.obj
 0003:00014938       $SG22435                   100af938     cg_servercmds.obj
 0003:00014940       $SG22436                   100af940     cg_servercmds.obj
 0003:00014948       $SG22437                   100af948     cg_servercmds.obj
 0003:00014954       $SG22438                   100af954     cg_servercmds.obj
 0003:0001495c       $SG22439                   100af95c     cg_servercmds.obj
 0003:00014964       $SG22440                   100af964     cg_servercmds.obj
 0003:0001496c       $SG22441                   100af96c     cg_servercmds.obj
 0003:00014978       $SG22442                   100af978     cg_servercmds.obj
 0003:00014980       $SG22443                   100af980     cg_servercmds.obj
 0003:0001498c       $SG22444                   100af98c     cg_servercmds.obj
 0003:00014994       $SG22445                   100af994     cg_servercmds.obj
 0003:0001499c       $SG22447                   100af99c     cg_servercmds.obj
 0003:000149a4       $SG22449                   100af9a4     cg_servercmds.obj
 0003:000149ac       $SG22450                   100af9ac     cg_servercmds.obj
 0003:000149b8       $SG22451                   100af9b8     cg_servercmds.obj
 0003:000149c0       $SG22453                   100af9c0     cg_servercmds.obj
 0003:000149cc       $SG22455                   100af9cc     cg_servercmds.obj
 0003:000149dc       $SG22456                   100af9dc     cg_servercmds.obj
 0003:000149e8       $SG22479                   100af9e8     cg_servercmds.obj
 0003:000149ec       $SG22483                   100af9ec     cg_servercmds.obj
 0003:000149f4       $SG22485                   100af9f4     cg_servercmds.obj
 0003:00014a00       $SG22498                   100afa00     cg_servercmds.obj
 0003:00014a30       $SG22500                   100afa30     cg_servercmds.obj
 0003:00014a50       $SG22514                   100afa50     cg_servercmds.obj
 0003:00014a54       $SG22516                   100afa54     cg_servercmds.obj
 0003:00014a58       $SG22518                   100afa58     cg_servercmds.obj
 0003:00014a5c       $SG22520                   100afa5c     cg_servercmds.obj
 0003:00014a60       $SG22525                   100afa60     cg_servercmds.obj
 0003:00014a90       $SG22527                   100afa90     cg_servercmds.obj
 0003:00014ac4       $SG22530                   100afac4     cg_servercmds.obj
 0003:00014aec       $SG22532                   100afaec     cg_servercmds.obj
 0003:00014b1c       $SG22535                   100afb1c     cg_servercmds.obj
 0003:00014b44       $SG22537                   100afb44     cg_servercmds.obj
 0003:00014b74       $SG22576                   100afb74     cg_servercmds.obj
 0003:00014b84       $SG22578                   100afb84     cg_servercmds.obj
 0003:00014b98       $SG22580                   100afb98     cg_servercmds.obj
 0003:00014ba4       $SG22587                   100afba4     cg_servercmds.obj
 0003:00014ba8       $SG22588                   100afba8     cg_servercmds.obj
 0003:00014bac       $SG22589                   100afbac     cg_servercmds.obj
 0003:00014bbc       $SG22611                   100afbbc     cg_servercmds.obj
 0003:00014bc0       $SG22612                   100afbc0     cg_servercmds.obj
 0003:00014bc4       $SG22613                   100afbc4     cg_servercmds.obj
 0003:00014bd4       $SG22614                   100afbd4     cg_servercmds.obj
 0003:00014be4       $SG22631                   100afbe4     cg_servercmds.obj
 0003:00014be8       $SG22634                   100afbe8     cg_servercmds.obj
 0003:00014bec       $SG22637                   100afbec     cg_servercmds.obj
 0003:00014bf0       $SG22698                   100afbf0     cg_servercmds.obj
 0003:00014bf4       $SG22699                   100afbf4     cg_servercmds.obj
 0003:00014bf8       $SG22700                   100afbf8     cg_servercmds.obj
 0003:00014c08       $SG22707                   100afc08     cg_servercmds.obj
 0003:00014c18       $SG22746                   100afc18     cg_servercmds.obj
 0003:00014c1c       $SG22753                   100afc1c     cg_servercmds.obj
 0003:00014c24       $SG22758                   100afc24     cg_servercmds.obj
 0003:00014c34       $SG22759                   100afc34     cg_servercmds.obj
 0003:00014c38       $SG22760                   100afc38     cg_servercmds.obj
 0003:00014c48       $SG22762                   100afc48     cg_servercmds.obj
 0003:00014c58       $SG22764                   100afc58     cg_servercmds.obj
 0003:00014c60       $SG22766                   100afc60     cg_servercmds.obj
 0003:00014c64       $SG22767                   100afc64     cg_servercmds.obj
 0003:00014c78       $SG22769                   100afc78     cg_servercmds.obj
 0003:00014ca4       $SG22770                   100afca4     cg_servercmds.obj
 0003:00014ca8       $SG22771                   100afca8     cg_servercmds.obj
 0003:00014cb8       $SG22824                   100afcb8     cg_servercmds.obj
 0003:00014cdc       $SG22826                   100afcdc     cg_servercmds.obj
 0003:00014d18       $SG22827                   100afd18     cg_servercmds.obj
 0003:00014d1c       $SG22832                   100afd1c     cg_servercmds.obj
 0003:00014d24       $SG22835                   100afd24     cg_servercmds.obj
 0003:00014d2c       $SG22838                   100afd2c     cg_servercmds.obj
 0003:00014d34       $SG22839                   100afd34     cg_servercmds.obj
 0003:00014d68       $SG22842                   100afd68     cg_servercmds.obj
 0003:00014d6c       $SG22844                   100afd6c     cg_servercmds.obj
 0003:00014d70       $SG22845                   100afd70     cg_servercmds.obj
 0003:00014da0       $SG22849                   100afda0     cg_servercmds.obj
 0003:00014da4       $SG22852                   100afda4     cg_servercmds.obj
 0003:00014da8       $SG22859                   100afda8     cg_servercmds.obj
 0003:00014dc0       $SG22860                   100afdc0     cg_servercmds.obj
 0003:00014dd8       $SG22861                   100afdd8     cg_servercmds.obj
 0003:00014df0       $SG22862                   100afdf0     cg_servercmds.obj
 0003:00014e04       $SG22863                   100afe04     cg_servercmds.obj
 0003:00014e18       $SG22864                   100afe18     cg_servercmds.obj
 0003:00014e2c       $SG22865                   100afe2c     cg_servercmds.obj
 0003:00014e40       $SG22866                   100afe40     cg_servercmds.obj
 0003:00014e54       $SG22867                   100afe54     cg_servercmds.obj
 0003:00014e74       $SG22885                   100afe74     cg_servercmds.obj
 0003:00014eb0       $SG22945                   100afeb0     cg_servercmds.obj
 0003:00014eb8       $SG22946                   100afeb8     cg_servercmds.obj
 0003:00014ec0       $SG22949                   100afec0     cg_servercmds.obj
 0003:00014ec4       $SG22950                   100afec4     cg_servercmds.obj
 0003:00014ec8       $SG22954                   100afec8     cg_servercmds.obj
 0003:00014ed8       $SG22956                   100afed8     cg_servercmds.obj
 0003:00014edc       $SG22960                   100afedc     cg_servercmds.obj
 0003:00014ee0       $SG22963                   100afee0     cg_servercmds.obj
 0003:00014ee4       $SG22982                   100afee4     cg_servercmds.obj
 0003:00014ef0       $SG22984                   100afef0     cg_servercmds.obj
 0003:00014ef4       $SG23020                   100afef4     cg_servercmds.obj
 0003:00014f04       $SG23023                   100aff04     cg_servercmds.obj
 0003:00014f14       $SG23024                   100aff14     cg_servercmds.obj
 0003:00014f20       $SG23036                   100aff20     cg_servercmds.obj
 0003:00014f2c       $SG23037                   100aff2c     cg_servercmds.obj
 0003:00014f34       $SG23038                   100aff34     cg_servercmds.obj
 0003:00014f44       $SG23039                   100aff44     cg_servercmds.obj
 0003:00014f54       $SG23040                   100aff54     cg_servercmds.obj
 0003:00014f5c       $SG23079                   100aff5c     cg_servercmds.obj
 0003:00014f60       $SG23084                   100aff60     cg_servercmds.obj
 0003:00014f64       $SG23088                   100aff64     cg_servercmds.obj
 0003:00014f70       $SG23089                   100aff70     cg_servercmds.obj
 0003:00014f84       $SG23092                   100aff84     cg_servercmds.obj
 0003:00014f90       $SG23093                   100aff90     cg_servercmds.obj
 0003:00014fa4       $SG23104                   100affa4     cg_servercmds.obj
 0003:00014fa8       $SG23113                   100affa8     cg_servercmds.obj
 0003:00014fac       $SG23120                   100affac     cg_servercmds.obj
 0003:00014fb4       $SG23134                   100affb4     cg_servercmds.obj
 0003:00014fb8       $SG23135                   100affb8     cg_servercmds.obj
 0003:00014fbc       $SG23136                   100affbc     cg_servercmds.obj
 0003:00014fcc       $SG23154                   100affcc     cg_servercmds.obj
 0003:00014fe4       $SG23155                   100affe4     cg_servercmds.obj
 0003:00014ff4       $SG23161                   100afff4     cg_servercmds.obj
 0003:00015004       $SG23162                   100b0004     cg_servercmds.obj
 0003:0001500c       $SG23166                   100b000c     cg_servercmds.obj
 0003:00015020       $SG23185                   100b0020     cg_servercmds.obj
 0003:00015028       $SG23192                   100b0028     cg_servercmds.obj
 0003:0001503c       $SG23194                   100b003c     cg_servercmds.obj
 0003:00015044       $SG23196                   100b0044     cg_servercmds.obj
 0003:0001504c       $SG23198                   100b004c     cg_servercmds.obj
 0003:00015054       $SG23200                   100b0054     cg_servercmds.obj
 0003:00015060       $SG23202                   100b0060     cg_servercmds.obj
 0003:00015070       $SG23204                   100b0070     cg_servercmds.obj
 0003:00015078       $SG23206                   100b0078     cg_servercmds.obj
 0003:00015084       $SG23208                   100b0084     cg_servercmds.obj
 0003:00015090       $SG23211                   100b0090     cg_servercmds.obj
 0003:00015098       $SG23213                   100b0098     cg_servercmds.obj
 0003:000150a4       $SG23220                   100b00a4     cg_servercmds.obj
 0003:000150a8       $SG23222                   100b00a8     cg_servercmds.obj
 0003:000150b4       $SG23224                   100b00b4     cg_servercmds.obj
 0003:000150bc       $SG23226                   100b00bc     cg_servercmds.obj
 0003:000150c8       $SG23228                   100b00c8     cg_servercmds.obj
 0003:000150cc       $SG23230                   100b00cc     cg_servercmds.obj
 0003:000150d0       $SG23232                   100b00d0     cg_servercmds.obj
 0003:000150d8       $SG23234                   100b00d8     cg_servercmds.obj
 0003:000150e0       $SG23236                   100b00e0     cg_servercmds.obj
 0003:000150e8       $SG23238                   100b00e8     cg_servercmds.obj
 0003:000150f4       $SG23240                   100b00f4     cg_servercmds.obj
 0003:00015100       $SG23242                   100b0100     cg_servercmds.obj
 0003:0001510c       $SG23244                   100b010c     cg_servercmds.obj
 0003:00015118       $SG23246                   100b0118     cg_servercmds.obj
 0003:00015124       $SG23248                   100b0124     cg_servercmds.obj
 0003:0001512c       $SG23250                   100b012c     cg_servercmds.obj
 0003:00015134       $SG23252                   100b0134     cg_servercmds.obj
 0003:00015140       $SG23254                   100b0140     cg_servercmds.obj
 0003:0001514c       $SG23256                   100b014c     cg_servercmds.obj
 0003:00015158       $SG23258                   100b0158     cg_servercmds.obj
 0003:00015164       $SG23260                   100b0164     cg_servercmds.obj
 0003:00015170       $SG23262                   100b0170     cg_servercmds.obj
 0003:0001517c       $SG23264                   100b017c     cg_servercmds.obj
 0003:00015188       $SG23266                   100b0188     cg_servercmds.obj
 0003:00015194       $SG23268                   100b0194     cg_servercmds.obj
 0003:000151a0       $SG23270                   100b01a0     cg_servercmds.obj
 0003:000151ac       $SG23272                   100b01ac     cg_servercmds.obj
 0003:000151b8       $SG23274                   100b01b8     cg_servercmds.obj
 0003:000151c0       $SG23276                   100b01c0     cg_servercmds.obj
 0003:000151cc       $SG23278                   100b01cc     cg_servercmds.obj
 0003:000151d8       $SG23280                   100b01d8     cg_servercmds.obj
 0003:000151e0       $SG23282                   100b01e0     cg_servercmds.obj
 0003:000151e4       $SG23284                   100b01e4     cg_servercmds.obj
 0003:000151ec       $SG23286                   100b01ec     cg_servercmds.obj
 0003:000151f4       $SG23288                   100b01f4     cg_servercmds.obj
 0003:00015200       $SG23290                   100b0200     cg_servercmds.obj
 0003:0001520c       $SG23292                   100b020c     cg_servercmds.obj
 0003:00015218       $SG23294                   100b0218     cg_servercmds.obj
 0003:00015228       $SG23296                   100b0228     cg_servercmds.obj
 0003:00015238       $SG23298                   100b0238     cg_servercmds.obj
 0003:00015244       $SG23300                   100b0244     cg_servercmds.obj
 0003:00015254       $SG23302                   100b0254     cg_servercmds.obj
 0003:00015264       $SG23304                   100b0264     cg_servercmds.obj
 0003:00015270       $SG23306                   100b0270     cg_servercmds.obj
 0003:00015294       $SG20979                   100b0294     cg_snapshot.obj
 0003:000152b8       $SG20981                   100b02b8     cg_snapshot.obj
 0003:000152e0       $SG21015                   100b02e0     cg_snapshot.obj
 0003:0001531c       $SG21032                   100b031c     cg_snapshot.obj
 0003:0001534c       $SG21038                   100b034c     cg_snapshot.obj
 0003:0001537c       $SG21041                   100b037c     cg_snapshot.obj
 0003:000153a4       $SG21044                   100b03a4     cg_snapshot.obj
 0003:000153dc       _syscall                   100b03dc     cg_syscalls.obj
 0003:000153e0       $SG21338                   100b03e0     cg_view.obj
 0003:000153e4       $SG21339                   100b03e4     cg_view.obj
 0003:000153e8       $SG21340                   100b03e8     cg_view.obj
 0003:000153ec       $SG21341                   100b03ec     cg_view.obj
 0003:000153f0       $SG21342                   100b03f0     cg_view.obj
 0003:000153f4       $SG21343                   100b03f4     cg_view.obj
 0003:000153f8       $SG21344                   100b03f8     cg_view.obj
 0003:00015400       $SG21345                   100b0400     cg_view.obj
 0003:00015404       $SG21346                   100b0404     cg_view.obj
 0003:00015408       $SG21347                   100b0408     cg_view.obj
 0003:0001540c       $SG21348                   100b040c     cg_view.obj
 0003:00015410       $SG21349                   100b0410     cg_view.obj
 0003:00015414       $SG21350                   100b0414     cg_view.obj
 0003:00015418       $SG21351                   100b0418     cg_view.obj
 0003:0001541c       $SG21352                   100b041c     cg_view.obj
 0003:00015428       $SG21353                   100b0428     cg_view.obj
 0003:00015434       $SG21354                   100b0434     cg_view.obj
 0003:00015440       $SG21355                   100b0440     cg_view.obj
 0003:0001544c       $SG21356                   100b044c     cg_view.obj
 0003:00015458       $SG21357                   100b0458     cg_view.obj
 0003:00015464       $SG21358                   100b0464     cg_view.obj
 0003:00015470       $SG21359                   100b0470     cg_view.obj
 0003:0001547c       $SG21360                   100b047c     cg_view.obj
 0003:00015488       $SG21361                   100b0488     cg_view.obj
 0003:00015494       $SG21362                   100b0494     cg_view.obj
 0003:000154a0       $SG21363                   100b04a0     cg_view.obj
 0003:000154ac       $SG21364                   100b04ac     cg_view.obj
 0003:000154b8       $SG21365                   100b04b8     cg_view.obj
 0003:000154c4       $SG20967                   100b04c4     cg_view.obj
 0003:000154d4       $SG21000                   100b04d4     cg_view.obj
 0003:000154dc       $SG21007                   100b04dc     cg_view.obj
 0003:000154f4       $SG21012                   100b04f4     cg_view.obj
 0003:00015500       $SG21016                   100b0500     cg_view.obj
 0003:0001550c       $SG21019                   100b050c     cg_view.obj
 0003:00015518       $SG21023                   100b0518     cg_view.obj
 0003:00015524       $SG21042                   100b0524     cg_view.obj
 0003:00015528       $SG21043                   100b0528     cg_view.obj
 0003:00015534       $SG21046                   100b0534     cg_view.obj
 0003:00015538       $SG21047                   100b0538     cg_view.obj
 0003:00015544       ?mins@?1??CG_OffsetThirdPersonView@@9@9 100b0544     cg_view.obj
 0003:00015550       ?maxs@?1??CG_OffsetThirdPersonView@@9@9 100b0550     cg_view.obj
 0003:0001555c       $SG21096                   100b055c     cg_view.obj
 0003:00015564       $SG21194                   100b0564     cg_view.obj
 0003:00015568       $SG21195                   100b0568     cg_view.obj
 0003:0001557c       $SG21197                   100b057c     cg_view.obj
 0003:00015580       $SG21198                   100b0580     cg_view.obj
 0003:00015594       $SG21221                   100b0594     cg_view.obj
 0003:00015598       $SG21222                   100b0598     cg_view.obj
 0003:0001559c       $SG21223                   100b059c     cg_view.obj
 0003:000155ac       $SG21319                   100b05ac     cg_view.obj
 0003:000155b8       $SG21370                   100b05b8     cg_view.obj
 0003:000155bc       $SG21371                   100b05bc     cg_view.obj
 0003:000155cc       $SG21396                   100b05cc     cg_view.obj
 0003:000155d0       $SG21397                   100b05d0     cg_view.obj
 0003:000155dc       $SG21399                   100b05dc     cg_view.obj
 0003:000155f0       $SG21401                   100b05f0     cg_view.obj
 0003:000155f8       $SG20941                   100b05f8     cg_weapons.obj
 0003:00015608       $SG20942                   100b0608     cg_weapons.obj
 0003:00015618       $SG20943                   100b0618     cg_weapons.obj
 0003:00015628       $SG20944                   100b0628     cg_weapons.obj
 0003:00015638       $SG20945                   100b0638     cg_weapons.obj
 0003:00015648       $SG21052                   100b0648     cg_weapons.obj
 0003:00015654       $SG21053                   100b0654     cg_weapons.obj
 0003:0001565c       $SG21054                   100b065c     cg_weapons.obj
 0003:00015664       $SG21055                   100b0664     cg_weapons.obj
 0003:0001566c       $SG21056                   100b066c     cg_weapons.obj
 0003:00015674       $SG21057                   100b0674     cg_weapons.obj
 0003:0001567c       $SG21058                   100b067c     cg_weapons.obj
 0003:00015684       $SG21059                   100b0684     cg_weapons.obj
 0003:0001568c       $SG21063                   100b068c     cg_weapons.obj
 0003:00015694       $SG21065                   100b0694     cg_weapons.obj
 0003:0001569c       $SG21323                   100b069c     cg_weapons.obj
 0003:000156b4       $SG21326                   100b06b4     cg_weapons.obj
 0003:000156c0       $SG21327                   100b06c0     cg_weapons.obj
 0003:000156cc       $SG21328                   100b06cc     cg_weapons.obj
 0003:000156d8       $SG21330                   100b06d8     cg_weapons.obj
 0003:00015704       $SG21332                   100b0704     cg_weapons.obj
 0003:00015724       $SG21333                   100b0724     cg_weapons.obj
 0003:00015744       $SG21335                   100b0744     cg_weapons.obj
 0003:00015764       $SG21336                   100b0764     cg_weapons.obj
 0003:00015788       $SG21337                   100b0788     cg_weapons.obj
 0003:000157ac       $SG21338                   100b07ac     cg_weapons.obj
 0003:000157bc       $SG21343                   100b07bc     cg_weapons.obj
 0003:000157d8       $SG21344                   100b07d8     cg_weapons.obj
 0003:000157fc       $SG21345                   100b07fc     cg_weapons.obj
 0003:00015820       $SG21346                   100b0820     cg_weapons.obj
 0003:00015844       $SG21348                   100b0844     cg_weapons.obj
 0003:00015870       $SG21349                   100b0870     cg_weapons.obj
 0003:00015880       $SG21350                   100b0880     cg_weapons.obj
 0003:000158a4       $SG21351                   100b08a4     cg_weapons.obj
 0003:000158c8       $SG21352                   100b08c8     cg_weapons.obj
 0003:000158ec       $SG21353                   100b08ec     cg_weapons.obj
 0003:00015910       $SG21354                   100b0910     cg_weapons.obj
 0003:00015934       $SG21356                   100b0934     cg_weapons.obj
 0003:00015958       $SG21357                   100b0958     cg_weapons.obj
 0003:0001597c       $SG21358                   100b097c     cg_weapons.obj
 0003:000159a0       $SG21359                   100b09a0     cg_weapons.obj
 0003:000159c4       $SG21360                   100b09c4     cg_weapons.obj
 0003:000159e8       $SG21361                   100b09e8     cg_weapons.obj
 0003:000159f8       $SG21363                   100b09f8     cg_weapons.obj
 0003:00015a20       $SG21364                   100b0a20     cg_weapons.obj
 0003:00015a48       $SG21365                   100b0a48     cg_weapons.obj
 0003:00015a70       $SG21366                   100b0a70     cg_weapons.obj
 0003:00015a98       $SG21367                   100b0a98     cg_weapons.obj
 0003:00015aa8       $SG21369                   100b0aa8     cg_weapons.obj
 0003:00015ac8       $SG21370                   100b0ac8     cg_weapons.obj
 0003:00015ae8       $SG21371                   100b0ae8     cg_weapons.obj
 0003:00015b08       $SG21372                   100b0b08     cg_weapons.obj
 0003:00015b28       $SG21373                   100b0b28     cg_weapons.obj
 0003:00015b38       $SG21375                   100b0b38     cg_weapons.obj
 0003:00015b5c       $SG21377                   100b0b5c     cg_weapons.obj
 0003:00015b7c       $SG21378                   100b0b7c     cg_weapons.obj
 0003:00015ba0       $SG21379                   100b0ba0     cg_weapons.obj
 0003:00015bc4       $SG21380                   100b0bc4     cg_weapons.obj
 0003:00015bd4       $SG21382                   100b0bd4     cg_weapons.obj
 0003:00015bf4       $SG21383                   100b0bf4     cg_weapons.obj
 0003:00015c18       $SG21384                   100b0c18     cg_weapons.obj
 0003:00015c2c       $SG21386                   100b0c2c     cg_weapons.obj
 0003:00015c48       $SG21387                   100b0c48     cg_weapons.obj
 0003:00015c6c       $SG21388                   100b0c6c     cg_weapons.obj
 0003:00015c80       $SG21390                   100b0c80     cg_weapons.obj
 0003:00015c9c       $SG21391                   100b0c9c     cg_weapons.obj
 0003:00015cc0       $SG21393                   100b0cc0     cg_weapons.obj
 0003:00015ce0       $SG21394                   100b0ce0     cg_weapons.obj
 0003:00015d04       $SG21395                   100b0d04     cg_weapons.obj
 0003:00015d14       $SG21396                   100b0d14     cg_weapons.obj
 0003:00015d20       $SG21398                   100b0d20     cg_weapons.obj
 0003:00015d44       $SG21399                   100b0d44     cg_weapons.obj
 0003:00015d68       $SG21400                   100b0d68     cg_weapons.obj
 0003:00015d78       $SG21401                   100b0d78     cg_weapons.obj
 0003:00015d84       $SG21402                   100b0d84     cg_weapons.obj
 0003:00015d90       $SG21404                   100b0d90     cg_weapons.obj
 0003:00015db0       $SG21405                   100b0db0     cg_weapons.obj
 0003:00015dd0       $SG21406                   100b0dd0     cg_weapons.obj
 0003:00015de0       $SG21407                   100b0de0     cg_weapons.obj
 0003:00015df8       $SG21408                   100b0df8     cg_weapons.obj
 0003:00015e1c       $SG21410                   100b0e1c     cg_weapons.obj
 0003:00015e40       $SG21418                   100b0e40     cg_weapons.obj
 0003:00015e78       $SG21724                   100b0e78     cg_weapons.obj
 0003:00015e84       $SG21726                   100b0e84     cg_weapons.obj
 0003:00015e90       $SG21728                   100b0e90     cg_weapons.obj
 0003:00015e9c       $SG21739                   100b0e9c     cg_weapons.obj
 0003:00015ea8       $SG21873                   100b0ea8     cg_weapons.obj
 0003:00015eac       $SG21965                   100b0eac     cg_weapons.obj
 0003:00015eb4       $SG21993                   100b0eb4     cg_weapons.obj
 0003:00015ee4       $SG22052                   100b0ee4     cg_weapons.obj
 0003:00015f20       $SG15575                   100b0f20     bg_misc.obj
 0003:00015f21       $SG15576                   100b0f21     bg_misc.obj
 0003:00015f22       $SG15583                   100b0f22     bg_misc.obj
 0003:00015f23       $SG15584                   100b0f23     bg_misc.obj
 0003:00015f24       $SG15590                   100b0f24     bg_misc.obj
 0003:00015f25       $SG15591                   100b0f25     bg_misc.obj
 0003:00015f26       $SG15597                   100b0f26     bg_misc.obj
 0003:00015f27       $SG15598                   100b0f27     bg_misc.obj
 0003:00015f28       $SG15604                   100b0f28     bg_misc.obj
 0003:00015f29       $SG15605                   100b0f29     bg_misc.obj
 0003:00015f2a       $SG15612                   100b0f2a     bg_misc.obj
 0003:00015f2b       $SG15613                   100b0f2b     bg_misc.obj
 0003:00015f2c       $SG15620                   100b0f2c     bg_misc.obj
 0003:00015f2d       $SG15621                   100b0f2d     bg_misc.obj
 0003:00015f2e       $SG15628                   100b0f2e     bg_misc.obj
 0003:00015f2f       $SG15629                   100b0f2f     bg_misc.obj
 0003:00015f30       $SG15636                   100b0f30     bg_misc.obj
 0003:00015f31       $SG15637                   100b0f31     bg_misc.obj
 0003:00015f32       $SG15643                   100b0f32     bg_misc.obj
 0003:00015f33       $SG15644                   100b0f33     bg_misc.obj
 0003:00015f34       $SG15650                   100b0f34     bg_misc.obj
 0003:00015f35       $SG15651                   100b0f35     bg_misc.obj
 0003:00015f36       $SG15657                   100b0f36     bg_misc.obj
 0003:00015f37       $SG15658                   100b0f37     bg_misc.obj
 0003:00015f38       $SG15664                   100b0f38     bg_misc.obj
 0003:00015f39       $SG15671                   100b0f39     bg_misc.obj
 0003:00015f3a       $SG15672                   100b0f3a     bg_misc.obj
 0003:00015f3b       $SG15678                   100b0f3b     bg_misc.obj
 0003:00015f3c       $SG15679                   100b0f3c     bg_misc.obj
 0003:00015f3d       $SG15685                   100b0f3d     bg_misc.obj
 0003:00015f3e       $SG15686                   100b0f3e     bg_misc.obj
 0003:00015f3f       $SG15692                   100b0f3f     bg_misc.obj
 0003:00015f40       $SG15693                   100b0f40     bg_misc.obj
 0003:00015f41       $SG15699                   100b0f41     bg_misc.obj
 0003:00015f42       $SG15700                   100b0f42     bg_misc.obj
 0003:00015f43       $SG15706                   100b0f43     bg_misc.obj
 0003:00015f44       $SG15707                   100b0f44     bg_misc.obj
 0003:00015f45       $SG15713                   100b0f45     bg_misc.obj
 0003:00015f46       $SG15714                   100b0f46     bg_misc.obj
 0003:00015f47       $SG15720                   100b0f47     bg_misc.obj
 0003:00015f48       $SG15721                   100b0f48     bg_misc.obj
 0003:00015f49       $SG15727                   100b0f49     bg_misc.obj
 0003:00015f4a       $SG15728                   100b0f4a     bg_misc.obj
 0003:00015f4b       $SG15734                   100b0f4b     bg_misc.obj
 0003:00015f4c       $SG15735                   100b0f4c     bg_misc.obj
 0003:00015f4d       $SG15741                   100b0f4d     bg_misc.obj
 0003:00015f4e       $SG15742                   100b0f4e     bg_misc.obj
 0003:00015f4f       $SG15748                   100b0f4f     bg_misc.obj
 0003:00015f50       $SG15749                   100b0f50     bg_misc.obj
 0003:00015f51       $SG15755                   100b0f51     bg_misc.obj
 0003:00015f52       $SG15756                   100b0f52     bg_misc.obj
 0003:00015f53       $SG15762                   100b0f53     bg_misc.obj
 0003:00015f54       $SG15763                   100b0f54     bg_misc.obj
 0003:00015f55       $SG15769                   100b0f55     bg_misc.obj
 0003:00015f56       $SG15770                   100b0f56     bg_misc.obj
 0003:00015f57       $SG15777                   100b0f57     bg_misc.obj
 0003:00015f58       $SG15785                   100b0f58     bg_misc.obj
 0003:00015f59       $SG15793                   100b0f59     bg_misc.obj
 0003:00015f5a       $SG15801                   100b0f5a     bg_misc.obj
 0003:00015f5b       $SG15802                   100b0f5b     bg_misc.obj
 0003:00015f5c       $SG15809                   100b0f5c     bg_misc.obj
 0003:00015f5d       $SG15810                   100b0f5d     bg_misc.obj
 0003:00015f5e       $SG15817                   100b0f5e     bg_misc.obj
 0003:00015f5f       $SG15825                   100b0f5f     bg_misc.obj
 0003:00015f60       $SG15832                   100b0f60     bg_misc.obj
 0003:00015f61       $SG15833                   100b0f61     bg_misc.obj
 0003:00015f62       $SG15839                   100b0f62     bg_misc.obj
 0003:00015f63       $SG15840                   100b0f63     bg_misc.obj
 0003:00015f64       $SG15846                   100b0f64     bg_misc.obj
 0003:00015f65       $SG15853                   100b0f65     bg_misc.obj
 0003:00015f66       $SG15854                   100b0f66     bg_misc.obj
 0003:00015f67       $SG15860                   100b0f67     bg_misc.obj
 0003:00015f68       $SG15861                   100b0f68     bg_misc.obj
 0003:00015f69       $SG15867                   100b0f69     bg_misc.obj
 0003:00015f6a       $SG15868                   100b0f6a     bg_misc.obj
 0003:00015f6b       $SG15874                   100b0f6b     bg_misc.obj
 0003:00015f6c       $SG15875                   100b0f6c     bg_misc.obj
 0003:00015f6d       $SG15881                   100b0f6d     bg_misc.obj
 0003:00015f6e       $SG15882                   100b0f6e     bg_misc.obj
 0003:00015f6f       $SG15888                   100b0f6f     bg_misc.obj
 0003:00015f70       $SG15889                   100b0f70     bg_misc.obj
 0003:00015f71       $SG15895                   100b0f71     bg_misc.obj
 0003:00015f72       $SG15896                   100b0f72     bg_misc.obj
 0003:00015f73       $SG15902                   100b0f73     bg_misc.obj
 0003:00015f74       $SG15903                   100b0f74     bg_misc.obj
 0003:00015f75       $SG15909                   100b0f75     bg_misc.obj
 0003:00015f76       $SG15910                   100b0f76     bg_misc.obj
 0003:00015f77       $SG15916                   100b0f77     bg_misc.obj
 0003:00015f78       $SG15917                   100b0f78     bg_misc.obj
 0003:00015f79       $SG15923                   100b0f79     bg_misc.obj
 0003:00015f7a       $SG15924                   100b0f7a     bg_misc.obj
 0003:00015f7b       $SG15930                   100b0f7b     bg_misc.obj
 0003:00015f7c       $SG15931                   100b0f7c     bg_misc.obj
 0003:00015f7d       $SG15937                   100b0f7d     bg_misc.obj
 0003:00015f7e       $SG15938                   100b0f7e     bg_misc.obj
 0003:00015f7f       $SG15944                   100b0f7f     bg_misc.obj
 0003:00015f80       $SG15951                   100b0f80     bg_misc.obj
 0003:00015f81       $SG15956                   100b0f81     bg_misc.obj
 0003:00015f82       $SG15957                   100b0f82     bg_misc.obj
 0003:00015f83       $SG15963                   100b0f83     bg_misc.obj
 0003:00015f84       $SG15964                   100b0f84     bg_misc.obj
 0003:00015f85       $SG15970                   100b0f85     bg_misc.obj
 0003:00015f86       $SG15971                   100b0f86     bg_misc.obj
 0003:00015f87       $SG15977                   100b0f87     bg_misc.obj
 0003:00015f88       $SG15978                   100b0f88     bg_misc.obj
 0003:00015f89       $SG15984                   100b0f89     bg_misc.obj
 0003:00015f8a       $SG15985                   100b0f8a     bg_misc.obj
 0003:00015f8b       $SG15991                   100b0f8b     bg_misc.obj
 0003:00015f8c       $SG15992                   100b0f8c     bg_misc.obj
 0003:00015f8d       $SG15998                   100b0f8d     bg_misc.obj
 0003:00015f8e       $SG15999                   100b0f8e     bg_misc.obj
 0003:00015fb0       _pm_jumpTakeoffVelocity    100b0fb0     bg_pmove.obj
 0003:00015fb4       _pm_jumpTakeoffDoubleJumpActive 100b0fb4     bg_pmove.obj
 0003:00015fb8       _pm_jumpTakeoffChainJumpActive 100b0fb8     bg_pmove.obj
 0003:00015fbc       _pm_jumpTakeoffRampJumpActive 100b0fbc     bg_pmove.obj
 0003:00015fcc       ?bops_initialized@?1??BoxOnPlaneSide@@9@9 100b0fcc     q_math.obj
 0003:00015fd0       ?Ljmptab@?1??BoxOnPlaneSide@@9@9 100b0fd0     q_math.obj
 0003:00015ff0       ?sr@?1??AngleVectors@@9@9  100b0ff0     q_math.obj
 0003:00015ff4       ?sp@?1??AngleVectors@@9@9  100b0ff4     q_math.obj
 0003:00015ff8       ?sy@?1??AngleVectors@@9@9  100b0ff8     q_math.obj
 0003:00015ffc       ?cr@?1??AngleVectors@@9@9  100b0ffc     q_math.obj
 0003:00016000       ?cp@?1??AngleVectors@@9@9  100b1000     q_math.obj
 0003:00016004       ?cy@?1??AngleVectors@@9@9  100b1004     q_math.obj
 0003:00016008       _com_token                 100b1008     q_shared.obj
 0003:00016408       _com_parsename             100b1408     q_shared.obj
 0003:00016808       _com_lines                 100b1808     q_shared.obj
 0003:0001680c       ?index@?1??va@@9@9         100b180c     q_shared.obj
 0003:00016810       ?string@?1??COM_ParseError@@9@9 100b1810     q_shared.obj
 0003:00017810       ?string@?1??COM_ParseWarning@@9@9 100b2810     q_shared.obj
 0003:00018810       ?string@?1??va@@9@9        100b3810     q_shared.obj
 0003:00028210       ?value@?1??Info_ValueForKey@@9@9 100c3210     q_shared.obj
 0003:0002c210       ?valueindex@?1??Info_ValueForKey@@9@9 100c7210     q_shared.obj
 0003:0002c214       $SG14990                   100c7214     q_shared.obj
 0003:0002c215       $SG14995                   100c7215     q_shared.obj
 0003:0002c216       $SG14998                   100c7216     q_shared.obj
 0003:0002c218       $SG16458                   100c7218     ui_shared.obj
 0003:0002c228       _scrollInfo                100c7228     ui_shared.obj
 0003:0002c248       _captureFunc               100c7248     ui_shared.obj
 0003:0002c24c       _captureData               100c724c     ui_shared.obj
 0003:0002c250       _itemCapture               100c7250     ui_shared.obj
 0003:0002c254       _g_waitingForKey           100c7254     ui_shared.obj
 0003:0002c258       _g_editingField            100c7258     ui_shared.obj
 0003:0002c25c       _g_bindItem                100c725c     ui_shared.obj
 0003:0002c260       _g_editItem                100c7260     ui_shared.obj
 0003:0002c264       _debugMode                 100c7264     ui_shared.obj
 0003:0002c268       _lastListBoxClickTime      100c7268     ui_shared.obj
 0003:0002c26c       _allocPoint                100c726c     ui_shared.obj
 0003:0002c270       _memoryPool                100c7270     ui_shared.obj
 0003:0004c270       _outOfMemory               100e7270     ui_shared.obj
 0003:0004c274       _strPoolIndex              100e7274     ui_shared.obj
 0003:0004c278       _strPool                   100e7278     ui_shared.obj
 0003:0006c278       _strHandleCount            10107278     ui_shared.obj
 0003:0006c27c       $SG17926                   1010727c     ui_shared.obj
 0003:0006c27d       $SG18590                   1010727d     ui_shared.obj
 0003:0006c27e       $SG18605                   1010727e     ui_shared.obj
 0003:0006c27f       $SG18846                   1010727f     ui_shared.obj
 0003:0006c280       _strHandle                 10107280     ui_shared.obj
 0003:0006e280       ?string@?1??PC_SourceWarning@@9@9 10109280     ui_shared.obj
 0003:0006f280       ?string@?1??PC_SourceError@@9@9 1010a280     ui_shared.obj
 0003:00070280       ?rect@?1??Item_CorrectedTextRect@@9@9 1010b280     ui_shared.obj
 0003:00070290       ?inHandleKey@?9??Menu_HandleKey@@9@9 1010b290     ui_shared.obj
 0003:00070294       $SG18848                   1010b294     ui_shared.obj
 0003:00070295       $SG18853                   1010b295     ui_shared.obj
 0003:00070296       $SG18854                   1010b296     ui_shared.obj
 0003:00070297       $SG19759                   1010b297     ui_shared.obj
 0003:00070298       _cg_pstatsRequestActive    1010b298     cg_consolecmds.obj
 0003:000702a8       _cgSpectatorMenu           1010b2a8     cg_draw.obj
 0003:000702ac       _cgSpectatorFollowMenu     1010b2ac     cg_draw.obj
 0003:000702b0       _cgSpectatorRedTopMenu     1010b2b0     cg_draw.obj
 0003:000702b4       _cgSpectatorRedBottomMenu  1010b2b4     cg_draw.obj
 0003:000702b8       _cgSpectatorBlueTopMenu    1010b2b8     cg_draw.obj
 0003:000702bc       _cgSpectatorBlueBottomMenu 1010b2bc     cg_draw.obj
 0003:000702c0       _cg_speedometerHistory     1010b2c0     cg_draw.obj
 0003:000704c0       _cg_speedometerHistoryCount 1010b4c0     cg_draw.obj
 0003:000704c4       _cg_speedometerHistoryTime 1010b4c4     cg_draw.obj
 0003:000704c8       _cg_inputCmdUpShader       1010b4c8     cg_draw.obj
 0003:000704cc       _cg_inputCmdDownShader     1010b4cc     cg_draw.obj
 0003:000704d0       _cg_inputCmdRightShader    1010b4d0     cg_draw.obj
 0003:000704d4       _cg_inputCmdLeftShader     1010b4d4     cg_draw.obj
 0003:000704d8       _cg_spectatorItemPickupBaseY 1010b4d8     cg_draw.obj
 0003:000704dc       _cg_drawActiveMilliseconds 1010b4dc     cg_draw.obj
 0003:000704e0       _cg_queuedWorldMarkers     1010b4e0     cg_draw.obj
 0003:000711e0       $SG21349                   1010c1e0     cg_draw.obj
 0003:000711e1       $SG21352                   1010c1e1     cg_draw.obj
 0003:000711e2       $SG22934                   1010c1e2     cg_draw.obj
 0003:000711e3       $SG23105                   1010c1e3     cg_draw.obj
 0003:000711e4       ?previousTimes@?1??CG_DrawFPS@@9@9 1010c1e4     cg_draw.obj
 0003:000711f4       ?index@?1??CG_DrawFPS@@9@9 1010c1f4     cg_draw.obj
 0003:000711f8       ?previous@?1??CG_DrawFPS@@9@9 1010c1f8     cg_draw.obj
 0003:000711fc       ?vignetteShader@?1??CG_DrawScreenVignette@@9@9 1010c1fc     cg_draw.obj
 0003:00071200       ?proxTime@?1??CG_DrawProxWarning@@9@9 1010c200     cg_draw.obj
 0003:00071204       ?proxCounter@?1??CG_DrawProxWarning@@9@9 1010c204     cg_draw.obj
 0003:00071208       ?proxTick@?1??CG_DrawProxWarning@@9@9 1010c208     cg_draw.obj
 0003:0007120c       $SG23109                   1010c20c     cg_draw.obj
 0003:00071210       ?playbackStateDelayFrames@?1??CG_DrawDemoPlaybackControls@@9@9 1010c210     cg_draw.obj
 0003:00071214       ?color@?1??CG_FadeColor@@9@9 1010c214     cg_drawtools.obj
 0003:00071224       ?lastPos@?1??CG_ScorePlum@@9@9 1010c224     cg_effects.obj
 0003:00071230       ?str@?1??CG_PlaceString@@9@9 1010c230     cg_event.obj
 0003:00071270       $SG21047                   1010c270     cg_event.obj
 0003:00071271       $SG21395                   1010c271     cg_event.obj
 0003:00071272       $SG21396                   1010c272     cg_event.obj
 0003:00071273       $SG21433                   1010c273     cg_event.obj
 0003:00071274       $SG21497                   1010c274     cg_event.obj
 0003:00071275       $SG21563                   1010c275     cg_event.obj
 0003:00071276       $SG22067                   1010c276     cg_event.obj
 0003:00071277       $SG22070                   1010c277     cg_event.obj
 0003:00071278       $SG22076                   1010c278     cg_event.obj
 0003:00071279       $SG22079                   1010c279     cg_event.obj
 0003:0007127a       $SG22136                   1010c27a     cg_event.obj
 0003:0007127b       $SG22140                   1010c27b     cg_event.obj
 0003:0007127c       $SG22143                   1010c27c     cg_event.obj
 0003:00071280       _loadingPlayerIconCount    1010c280     cg_info.obj
 0003:00071284       _loadingItemIconCount      1010c284     cg_info.obj
 0003:00071288       _loadingProgressStage      1010c288     cg_info.obj
 0003:0007128c       $SG21086                   1010c28c     cg_info.obj
 0003:00071290       _loadingPlayerIcons        1010c290     cg_info.obj
 0003:000712d0       _loadingItemIcons          1010c2d0     cg_info.obj
 0003:00071338       $SG21291                   1010c338     cg_main.obj
 0003:00071339       $SG21425                   1010c339     cg_main.obj
 0003:0007133a       $SG21427                   1010c33a     cg_main.obj
 0003:0007133b       $SG21429                   1010c33b     cg_main.obj
 0003:0007133c       $SG21431                   1010c33c     cg_main.obj
 0003:0007133d       $SG21445                   1010c33d     cg_main.obj
 0003:0007133e       $SG21447                   1010c33e     cg_main.obj
 0003:0007133f       $SG21449                   1010c33f     cg_main.obj
 0003:00071340       $SG21453                   1010c340     cg_main.obj
 0003:00071341       $SG21455                   1010c341     cg_main.obj
 0003:00071342       $SG21457                   1010c342     cg_main.obj
 0003:00071343       $SG21463                   1010c343     cg_main.obj
 0003:00071344       $SG21465                   1010c344     cg_main.obj
 0003:00071345       $SG21467                   1010c345     cg_main.obj
 0003:00071346       $SG21469                   1010c346     cg_main.obj
 0003:00071347       $SG21471                   1010c347     cg_main.obj
 0003:00071348       $SG21473                   1010c348     cg_main.obj
 0003:00071349       $SG21529                   1010c349     cg_main.obj
 0003:0007134a       $SG21557                   1010c34a     cg_main.obj
 0003:0007134b       $SG21631                   1010c34b     cg_main.obj
 0003:0007134c       $SG21633                   1010c34c     cg_main.obj
 0003:0007134d       $SG21635                   1010c34d     cg_main.obj
 0003:0007134e       $SG21637                   1010c34e     cg_main.obj
 0003:0007134f       $SG21703                   1010c34f     cg_main.obj
 0003:00071350       $SG21705                   1010c350     cg_main.obj
 0003:00071351       $SG21707                   1010c351     cg_main.obj
 0003:00071352       $SG21709                   1010c352     cg_main.obj
 0003:00071353       $SG21711                   1010c353     cg_main.obj
 0003:00071354       $SG21713                   1010c354     cg_main.obj
 0003:00071355       $SG21715                   1010c355     cg_main.obj
 0003:00071356       $SG21717                   1010c356     cg_main.obj
 0003:00071357       $SG21719                   1010c357     cg_main.obj
 0003:00071358       $SG21721                   1010c358     cg_main.obj
 0003:00071359       $SG21723                   1010c359     cg_main.obj
 0003:0007135a       $SG21725                   1010c35a     cg_main.obj
 0003:0007135b       $SG21727                   1010c35b     cg_main.obj
 0003:0007135c       $SG21729                   1010c35c     cg_main.obj
 0003:0007135d       $SG21731                   1010c35d     cg_main.obj
 0003:0007135e       $SG21733                   1010c35e     cg_main.obj
 0003:0007135f       $SG21735                   1010c35f     cg_main.obj
 0003:00071360       $SG22523                   1010c360     cg_main.obj
 0003:00071361       $SG22037                   1010c361     cg_main.obj
 0003:00071362       $SG22265                   1010c362     cg_main.obj
 0003:00071363       $SG22290                   1010c363     cg_main.obj
 0003:00071364       _cgScoreboardSelectionMenus 1010c364     cg_main.obj
 0003:0007136c       $SG23784                   1010c36c     cg_main.obj
 0003:0007136d       $SG23799                   1010c36d     cg_main.obj
 0003:0007136e       $SG23809                   1010c36e     cg_main.obj
 0003:0007136f       $SG23829                   1010c36f     cg_main.obj
 0003:00071370       _cgClientSpeakingState     1010c370     cg_main.obj
 0003:00071570       ?buffer@?1??CG_Argv@@9@9   1010c570     cg_main.obj
 0003:00071970       ?buf@?1??CG_GetMenuBuffer@@9@9 1010c970     cg_main.obj
 0003:00079970       ?buf@?1??CG_LoadMenus@@9@9 10114970     cg_main.obj
 0003:0007a970       $SG23840                   10115970     cg_main.obj
 0003:0007a971       $SG23862                   10115971     cg_main.obj
 0003:0007a972       $SG23874                   10115972     cg_main.obj
 0003:0007a973       $SG23877                   10115973     cg_main.obj
 0003:0007a974       $SG23883                   10115974     cg_main.obj
 0003:0007a975       $SG23886                   10115975     cg_main.obj
 0003:0007a976       $SG23890                   10115976     cg_main.obj
 0003:0007a977       $SG23892                   10115977     cg_main.obj
 0003:0007a978       $SG23907                   10115978     cg_main.obj
 0003:0007a979       $SG23910                   10115979     cg_main.obj
 0003:0007a97a       $SG23920                   1011597a     cg_main.obj
 0003:0007a97b       $SG23935                   1011597b     cg_main.obj
 0003:0007a97c       $SG23938                   1011597c     cg_main.obj
 0003:0007a97d       $SG23952                   1011597d     cg_main.obj
 0003:0007a97e       $SG23967                   1011597e     cg_main.obj
 0003:0007a97f       $SG23970                   1011597f     cg_main.obj
 0003:0007a980       $SG23980                   10115980     cg_main.obj
 0003:0007a981       $SG23985                   10115981     cg_main.obj
 0003:0007a982       $SG24003                   10115982     cg_main.obj
 0003:0007a983       $SG24006                   10115983     cg_main.obj
 0003:0007a984       $SG24024                   10115984     cg_main.obj
 0003:0007a985       $SG24026                   10115985     cg_main.obj
 0003:0007a986       $SG24045                   10115986     cg_main.obj
 0003:0007a987       $SG24048                   10115987     cg_main.obj
 0003:0007a988       $SG24050                   10115988     cg_main.obj
 0003:0007a989       $SG24086                   10115989     cg_main.obj
 0003:0007a98a       $SG24103                   1011598a     cg_main.obj
 0003:0007a98b       $SG24106                   1011598b     cg_main.obj
 0003:0007a98c       $SG24108                   1011598c     cg_main.obj
 0003:0007a98d       $SG24142                   1011598d     cg_main.obj
 0003:0007a98e       $SG24160                   1011598e     cg_main.obj
 0003:0007a98f       $SG24163                   1011598f     cg_main.obj
 0003:0007a990       $SG24165                   10115990     cg_main.obj
 0003:0007a991       $SG24203                   10115991     cg_main.obj
 0003:0007a992       $SG24224                   10115992     cg_main.obj
 0003:0007a993       $SG24700                   10115993     cg_main.obj
 0003:0007a998       _cgGameTypeIconShaders     10115998     cg_newdraw.obj
 0003:0007a9cc       $SG21047                   101159cc     cg_newdraw.obj
 0003:0007a9cd       $SG21811                   101159cd     cg_newdraw.obj
 0003:0007a9ce       $SG22894                   101159ce     cg_newdraw.obj
 0003:0007a9cf       $SG22897                   101159cf     cg_newdraw.obj
 0003:0007a9d0       ?buffer@?1??CG_GetRaceStatusText@@9@9 101159d0     cg_newdraw.obj
 0003:0007aa10       ?buffer@?1??CG_GetRaceTimesPrimaryText@@9@9 10115a10     cg_newdraw.obj
 0003:0007aa50       ?buffer@?1??CG_GetRaceTimesSecondaryText@@9@9 10115a50     cg_newdraw.obj
 0003:0007aa90       ?fallback@?1??CG_GetProfileFallbackShader@@9@9 10115a90     cg_newdraw.obj
 0003:0007aa94       ?buffer@?1??CG_GetMatchStateLabel@@9@9 10115a94     cg_newdraw.obj
 0003:0007aab4       $SG22900                   10115ab4     cg_newdraw.obj
 0003:0007aab5       $SG22914                   10115ab5     cg_newdraw.obj
 0003:0007aab6       $SG22943                   10115ab6     cg_newdraw.obj
 0003:0007aab7       $SG22945                   10115ab7     cg_newdraw.obj
 0003:0007aab8       ?buffer@?1??CG_GetMatchStatusText@@9@9 10115ab8     cg_newdraw.obj
 0003:0007abb8       ?buffer@?1??CG_GetEndGameScoreText@@9@9 10115bb8     cg_newdraw.obj
 0003:0007ac38       ?buffer@?1??CG_GetMatchWinnerText@@9@9 10115c38     cg_newdraw.obj
 0003:0007acb8       _cg_voteShotCache          10115cb8     cg_newdraw.obj
 0003:0007ad84       $SG23294                   10115d84     cg_newdraw.obj
 0003:0007ad85       $SG24868                   10115d85     cg_newdraw.obj
 0003:0007ad86       $SG25455                   10115d86     cg_newdraw.obj
 0003:0007ad87       $SG25630                   10115d87     cg_newdraw.obj
 0003:0007ad88       _cgTeamPickupSummaryIconHandles 10115d88     cg_newdraw.obj
 0003:0007adb4       _cgTeamPickupSummaryBlueFlagHandle 10115db4     cg_newdraw.obj
 0003:0007adb8       _cgTeamPickupSummaryNeutralFlagHandle 10115db8     cg_newdraw.obj
 0003:0007adbc       _cgTeamPickupSummaryRedFlagHandle 10115dbc     cg_newdraw.obj
 0003:0007adc0       $SG25632                   10115dc0     cg_newdraw.obj
 0003:0007adc1       $SG25635                   10115dc1     cg_newdraw.obj
 0003:0007adc4       ?rect@?1??CG_BrowserCorrectedTextRect@@9@9 10115dc4     cg_newdraw.obj
 0003:0007add4       _markTotal                 10115dd4     cg_marks.obj
 0003:0007add8       _shaderAnims               10115dd8     cg_particles.obj
 0003:0007cdd8       _numShaderAnims            10117dd8     cg_particles.obj
 0003:0007cddc       _active_particles          10117ddc     cg_particles.obj
 0003:0007cde0       _free_particles            10117de0     cg_particles.obj
 0003:0007cde4       _initparticles             10117de4     cg_particles.obj
 0003:0007cde8       _particles                 10117de8     cg_particles.obj
 0003:0009bde8       _vforward                  10136de8     cg_particles.obj
 0003:0009bdf4       _vright                    10136df4     cg_particles.obj
 0003:0009be00       _vup                       10136e00     cg_particles.obj
 0003:0009be0c       _rforward                  10136e0c     cg_particles.obj
 0003:0009be18       _rright                    10136e18     cg_particles.obj
 0003:0009be24       _rup                       10136e24     cg_particles.obj
 0003:0009be30       _oldtime                   10136e30     cg_particles.obj
 0003:0009be34       _roll                      10136e34     cg_particles.obj
 0003:0009be38       $SG21097                   10136e38     cg_players.obj
 0003:0009be39       $SG21153                   10136e39     cg_players.obj
 0003:0009be40       _cg_pmove                  10136e40     cg_predict.obj
 0003:0009bf34       _cg_numSolidEntities       10136f34     cg_predict.obj
 0003:0009bf38       _cg_solidEntities          10136f38     cg_predict.obj
 0003:0009c338       _cg_numTriggerEntities     10137338     cg_predict.obj
 0003:0009c33c       _cg_clientInfoContextValid 1013733c     cg_predict.obj
 0003:0009c340       _cg_triggerEntities        10137340     cg_predict.obj
 0003:0009c740       _cg_clientInfoContextFollow 10137740     cg_predict.obj
 0003:0009c744       _cg_clientInfoContextClientNum 10137744     cg_predict.obj
 0003:0009c748       _cg_clientInfoContextTeam  10137748     cg_predict.obj
 0003:0009c74c       _cg_screenDamageBlendShader 1013774c     cg_screen.obj
 0003:0009c750       _cg_joinGameMenuCaptureActive 10137750     cg_screen.obj
 0003:0009c758       _localClient               10137758     cg_scoreboard.obj
 0003:0009c75c       $SG21088                   1013775c     cg_scoreboard.obj
 0003:0009c75d       $SG21090                   1013775d     cg_scoreboard.obj
 0003:0009c75e       $SG21251                   1013775e     cg_scoreboard.obj
 0003:0009c75f       $SG21254                   1013775f     cg_scoreboard.obj
 0003:0009c760       _cgHudScoreboard           10137760     cg_scoreboard.obj
 0003:0009cfb4       $SG21155                   10137fb4     cg_servercmds.obj
 0003:0009cfb5       $SG21725                   10137fb5     cg_servercmds.obj
 0003:0009cfb6       $SG21747                   10137fb6     cg_servercmds.obj
 0003:0009cfb7       $SG22179                   10137fb7     cg_servercmds.obj
 0003:0009cfb8       _cg_matchTimeoutStartTime  10137fb8     cg_servercmds.obj
 0003:0009cfbc       $SG22227                   10137fbc     cg_servercmds.obj
 0003:0009cfbd       $SG22272                   10137fbd     cg_servercmds.obj
 0003:0009cfbe       $SG22495                   10137fbe     cg_servercmds.obj
 0003:0009cfbf       $SG22522                   10137fbf     cg_servercmds.obj
 0003:0009cfc0       $SG22577                   10137fc0     cg_servercmds.obj
 0003:0009cfc1       $SG22579                   10137fc1     cg_servercmds.obj
 0003:0009cfc2       $SG22581                   10137fc2     cg_servercmds.obj
 0003:0009cfc3       $SG22761                   10137fc3     cg_servercmds.obj
 0003:0009cfc4       _cg_refreshClientInfoContextQueued 10137fc4     cg_snapshot.obj
 0003:0009cfc8       _cg_imports                10137fc8     cg_syscalls.obj
 0003:0009cfd0       _cg_viewFilterModificationCount 10137fd0     cg_view.obj
 0003:0009cfd4       _cg_bufferedSoundHead      10137fd4     cg_view.obj
 0003:0009cfd8       _cg_bufferedSoundTail      10137fd8     cg_view.obj
 0003:0009cfe0       _cg_bufferedSounds         10137fe0     cg_view.obj
 0003:0009d060       _cg_bufferedSoundTimes     10138060     cg_view.obj
 0003:0009d0e0       _cg_bufferedSoundDelays    101380e0     cg_view.obj
 0003:0009d160       _cg_lightningImpactFrameTime 10138160     cg_weapons.obj
 0003:0009d164       _cg_lightningImpactCount   10138164     cg_weapons.obj
 0003:0009d168       _cg_weaponTogglePrevious   10138168     cg_weapons.obj
 0003:0009d16c       _cg_weaponToggleFallback   1013816c     cg_weapons.obj
 0003:0009d170       _GS_ExceptionRecord        10138170     MSVCRTD:gs_report.obj
 0003:0009d1c0       _GS_ContextRecord          101381c0     MSVCRTD:gs_report.obj
 0003:0009d48c       ?__proc_attached@@3HA      1013848c     MSVCRTD:dll_dllmain.obj
 0003:0009d4b8       ?is_initialized_as_dll@@3_NA 101384b8     MSVCRTD:utility.obj
 0003:0009d4b9       ?module_local_atexit_table_initialized@@3_NA 101384b9     MSVCRTD:utility.obj
 0003:0009d4bc       ?module_local_atexit_table@@3U_onexit_table_t@@A 101384bc     MSVCRTD:utility.obj
 0003:0009d4c8       ?module_local_at_quick_exit_table@@3U_onexit_table_t@@A 101384c8     MSVCRTD:utility.obj
 0004:00000060       $R000000                   10516060     * linker generated manifest res *
